
lgdst2.elf:     file format elf32-littlenios2
lgdst2.elf
architecture: nios2:r1, flags 0x00000112:
EXEC_P, HAS_SYMS, D_PAGED
start address 0x00000020

Program Header:
    LOAD off    0x00001000 vaddr 0x00000000 paddr 0x00000000 align 2**12
         filesz 0x00000020 memsz 0x00000020 flags r-x
    LOAD off    0x00001020 vaddr 0x00000020 paddr 0x00000020 align 2**12
         filesz 0x00029738 memsz 0x00029738 flags r-x
    LOAD off    0x0002a758 vaddr 0x00029758 paddr 0x0002a154 align 2**12
         filesz 0x000009fc memsz 0x000009fc flags rw-
    LOAD off    0x0002bb50 vaddr 0x0002ab50 paddr 0x0002ab50 align 2**12
         filesz 0x00000000 memsz 0x000000c8 flags rw-

Sections:
Idx Name          Size      VMA       LMA       File off  Algn
  0 .entry        00000020  00000000  00000000  00001000  2**5
                  CONTENTS, ALLOC, LOAD, READONLY, CODE
  1 .exceptions   00000000  00000020  00000020  0002b154  2**0
                  CONTENTS
  2 .text         00025328  00000020  00000020  00001020  2**2
                  CONTENTS, ALLOC, LOAD, READONLY, CODE
  3 .rodata       00004410  00025348  00025348  00026348  2**2
                  CONTENTS, ALLOC, LOAD, READONLY, DATA
  4 .rwdata       000009fc  00029758  0002a154  0002a758  2**2
                  CONTENTS, ALLOC, LOAD, DATA, SMALL_DATA
  5 .bss          000000c8  0002ab50  0002ab50  0002bb50  2**2
                  ALLOC, SMALL_DATA
  6 .onchip_ram   00000000  0002ac18  0002ac18  0002b154  2**0
                  CONTENTS
  7 .comment      00000023  00000000  00000000  0002b154  2**0
                  CONTENTS, READONLY
  8 .debug_aranges 00000be8  00000000  00000000  0002b178  2**3
                  CONTENTS, READONLY, DEBUGGING
  9 .debug_info   00027822  00000000  00000000  0002bd60  2**0
                  CONTENTS, READONLY, DEBUGGING
 10 .debug_abbrev 0000748a  00000000  00000000  00053582  2**0
                  CONTENTS, READONLY, DEBUGGING
 11 .debug_line   0000bd7a  00000000  00000000  0005aa0c  2**0
                  CONTENTS, READONLY, DEBUGGING
 12 .debug_frame  00004600  00000000  00000000  00066788  2**2
                  CONTENTS, READONLY, DEBUGGING
 13 .debug_str    00007bc8  00000000  00000000  0006ad88  2**0
                  CONTENTS, READONLY, DEBUGGING
 14 .debug_loc    0000fec2  00000000  00000000  00072950  2**0
                  CONTENTS, READONLY, DEBUGGING
 15 .debug_alt_sim_info 00000030  00000000  00000000  00082814  2**2
                  CONTENTS, READONLY, DEBUGGING
 16 .debug_ranges 00001538  00000000  00000000  00082848  2**3
                  CONTENTS, READONLY, DEBUGGING
 17 .thread_model 00000003  00000000  00000000  00089a86  2**0
                  CONTENTS, READONLY
 18 .cpu          00000009  00000000  00000000  00089a89  2**0
                  CONTENTS, READONLY
 19 .qsys         00000001  00000000  00000000  00089a92  2**0
                  CONTENTS, READONLY
 20 .simulation_enabled 00000001  00000000  00000000  00089a93  2**0
                  CONTENTS, READONLY
 21 .sysid_hash   00000004  00000000  00000000  00089a94  2**0
                  CONTENTS, READONLY
 22 .sysid_base   00000004  00000000  00000000  00089a98  2**0
                  CONTENTS, READONLY
 23 .sysid_time   00000004  00000000  00000000  00089a9c  2**0
                  CONTENTS, READONLY
 24 .stderr_dev   00000004  00000000  00000000  00089aa0  2**0
                  CONTENTS, READONLY
 25 .stdin_dev    00000004  00000000  00000000  00089aa4  2**0
                  CONTENTS, READONLY
 26 .stdout_dev   00000004  00000000  00000000  00089aa8  2**0
                  CONTENTS, READONLY
 27 .sopc_system_name 00000009  00000000  00000000  00089aac  2**0
                  CONTENTS, READONLY
 28 .quartus_project_dir 00000064  00000000  00000000  00089ab5  2**0
                  CONTENTS, READONLY
 29 .jdi          00005269  00000000  00000000  00089b19  2**0
                  CONTENTS, READONLY
 30 .sopcinfo     00055d2e  00000000  00000000  0008ed82  2**0
                  CONTENTS, READONLY
SYMBOL TABLE:
00000000 l    d  .entry	00000000 .entry
00000020 l    d  .exceptions	00000000 .exceptions
00000020 l    d  .text	00000000 .text
00025348 l    d  .rodata	00000000 .rodata
00029758 l    d  .rwdata	00000000 .rwdata
0002ab50 l    d  .bss	00000000 .bss
0002ac18 l    d  .onchip_ram	00000000 .onchip_ram
00000000 l    d  .comment	00000000 .comment
00000000 l    d  .debug_aranges	00000000 .debug_aranges
00000000 l    d  .debug_info	00000000 .debug_info
00000000 l    d  .debug_abbrev	00000000 .debug_abbrev
00000000 l    d  .debug_line	00000000 .debug_line
00000000 l    d  .debug_frame	00000000 .debug_frame
00000000 l    d  .debug_str	00000000 .debug_str
00000000 l    d  .debug_loc	00000000 .debug_loc
00000000 l    d  .debug_alt_sim_info	00000000 .debug_alt_sim_info
00000000 l    d  .debug_ranges	00000000 .debug_ranges
00000000 l    df *ABS*	00000000 ../lgdst2_bsp//obj/HAL/src/crt0.o
00000070 l       .text	00000000 alt_after_alt_main
00000000 l    df *ABS*	00000000 ad9361.c
00025348 l     O .rodata	000008b2 SynthLUT_FDD
00025bfa l     O .rodata	000008b2 SynthLUT_TDD
000264ac l     O .rodata	000002b5 full_gain_table
00026761 l     O .rodata	00000171 split_gain_table
000268d2 l     O .rodata	00000010 gm_st_gain
000268e2 l     O .rodata	00000010 gm_st_ctrl
000268f2 l     O .rodata	0000000c lna_table
0002a126 l     O .rwdata	00000002 tia_table
000268fe l     O .rodata	00000030 mixer_table
00026930 l     O .rodata	00000050 gain_step_calib_reg_val
000001b8 l     F .text	000000a8 __ad9361_spi_readf
0000031c l     F .text	000000d0 __ad9361_spi_writef
000003ec l     F .text	00000104 ad9361_spi_writem
000279bc l     O .rodata	0000000d __func__.3937
000008c0 l     F .text	000000a8 ad9361_int_loopback_fix_ch_cross
000279cc l     O .rodata	00000015 __func__.3960
000279e4 l     O .rodata	00000011 __func__.3975
000279f8 l     O .rodata	00000011 __func__.3996
00000eb0 l     F .text	000000e0 ad9361_check_cal_done
00000f90 l     F .text	00000098 ad9361_run_calibration
00027a0c l     O .rodata	00000017 __func__.4025
00001028 l     F .text	00000080 ad9361_gt_tableindex
00001150 l     F .text	00000310 ad9361_load_gt
00027a24 l     O .rodata	0000000f __func__.4047
00001460 l     F .text	0000011c ad9361_setup_ext_lna
0000157c l     F .text	000000ac ad9361_clkout_control
00001628 l     F .text	000001d4 ad9361_load_mixer_gm_subtable
00027a34 l     O .rodata	0000001e __func__.4066
00027a54 l     O .rodata	00000014 __func__.4080
00001a30 l     F .text	0000005c ad9361_rfvco_tableindex
00001a8c l     F .text	00000448 ad9361_rfpll_vco_init
00027a68 l     O .rodata	00000016 __func__.4103
00001ed4 l     F .text	0000023c ad9361_get_split_table_gain
00002110 l     F .text	0000015c ad9361_get_full_table_gain
00002828 l     F .text	00000220 set_split_table_gain
00002a48 l     F .text	000001ac set_full_table_gain
00002d60 l     F .text	0000007c ad9361_init_gain_info
00002eb4 l     F .text	00000580 ad9361_gc_update
00003814 l     F .text	00000e8c ad9361_rx_adc_setup
00027a80 l     O .rodata	00000014 __func__.4296
000046a0 l     F .text	000002f0 ad9361_rx_tia_calib
00027a94 l     O .rodata	00000014 __func__.4322
00004990 l     F .text	0000028c ad9361_rx_bb_analog_filter_calib
00027aa8 l     O .rodata	00000021 __func__.4332
00004c1c l     F .text	00000180 ad9361_tx_bb_analog_filter_calib
00027acc l     O .rodata	00000021 __func__.4342
00004d9c l     F .text	00000304 ad9361_tx_bb_second_filter_calib
00027af0 l     O .rodata	00000021 __func__.4356
000050a0 l     F .text	000002a4 ad9361_txrx_synth_cp_calib
00027b14 l     O .rodata	0000001b __func__.4374
00005344 l     F .text	000000a4 ad9361_bb_dc_offset_calib
00027b30 l     O .rodata	0000001a __func__.4379
000053e8 l     F .text	000001b4 ad9361_rf_dc_offset_calib
00027b4c l     O .rodata	0000001a __func__.4386
0000559c l     F .text	00000154 __ad9361_update_rf_bandwidth
00027b68 l     O .rodata	0000001d __func__.4397
000056f0 l     F .text	00000120 __ad9361_tx_quad_calib
00005810 l     F .text	00000190 ad9361_tx_quad_phase_search
00027b88 l     O .rodata	0000001c __func__.4417
000059a0 l     F .text	00000838 ad9361_tx_quad_calib
00027ba4 l     O .rodata	00000015 __func__.4443
00027bbc l     O .rodata	00000018 __func__.4470
00006388 l     F .text	000000c4 ad9361_trx_vco_cal_control
00027bd4 l     O .rodata	0000001b __func__.4477
0000644c l     F .text	0000038c ad9361_trx_ext_lo_control
00027bf0 l     O .rodata	0000001a __func__.4487
000067d8 l     F .text	00000094 ad9361_set_ref_clk_cycles
00027c0c l     O .rodata	0000001a __func__.4493
0000686c l     F .text	000000c4 ad9361_set_dcxo_tune
00027c28 l     O .rodata	00000015 __func__.4500
00006930 l     F .text	000001d4 ad9361_txmon_setup
00027c40 l     O .rodata	00000013 __func__.4507
00006b04 l     F .text	0000010c ad9361_txmon_control
00027c54 l     O .rodata	00000015 __func__.4513
00027c6c l     O .rodata	00000015 __func__.4522
00006d34 l     F .text	00000248 ad9361_pp_port_setup
00027c84 l     O .rodata	00000015 __func__.4530
00006f7c l     F .text	0000135c ad9361_gc_setup
00027c9c l     O .rodata	00000010 __func__.4540
000082d8 l     F .text	00000204 ad9361_auxdac_set
00027cac l     O .rodata	00000012 __func__.4560
00008544 l     F .text	000001fc ad9361_auxdac_setup
00027cc0 l     O .rodata	00000014 __func__.4579
00008740 l     F .text	0000017c ad9361_auxadc_setup
00027cd4 l     O .rodata	00000014 __func__.4588
00008a4c l     F .text	00000098 ad9361_ctrl_outs_setup
00027ce8 l     O .rodata	00000017 __func__.4603
00008ae4 l     F .text	0000025c ad9361_gpo_setup
00027d00 l     O .rodata	00000011 __func__.4610
00008d40 l     F .text	000004e0 ad9361_rssi_setup
00027d14 l     O .rodata	00000012 __func__.4631
00009220 l     F .text	000000b4 ad9361_bb_clk_change_handler
0000984c l     F .text	0000018c ad9361_validate_trx_clock_chain
00027d28 l     O .rodata	00000020 __func__.4680
00027d48 l     O .rodata	0000001b __func__.4691
00027d64 l     O .rodata	00000020 __func__.4733
0000a86c l     F .text	00000094 ad9361_fastlock_readval
0000a900 l     F .text	0000011c ad9361_fastlock_writeval
00027d84 l     O .rodata	00000015 __func__.4783
00027d9c l     O .rodata	00000016 __func__.4798
0000b108 l     F .text	00000364 ad9361_fastlock_prepare
00027db4 l     O .rodata	00000018 __func__.4809
00027dcc l     O .rodata	00000017 __func__.4821
00027de4 l     O .rodata	00000015 __func__.4830
00027dfc l     O .rodata	0000000b __func__.4840
0000bc88 l     F .text	000000a4 ad9361_ref_div_sel
00027e08 l     O .rodata	0000000d __func__.4867
00027e18 l     O .rodata	00000014 __func__.4884
0000cce4 l     F .text	000002bc ad9361_verify_fir_filter_coef
00027e2c l     O .rodata	0000001e __func__.4910
00027e4c l     O .rodata	0000001c __func__.4932
00027e68 l     O .rodata	0000001b __func__.4952
0000d994 l     F .text	0000004c ad9361_set_muldiv
0000d9e0 l     F .text	0000045c ad9361_get_clk_scaler
0000de3c l     F .text	0000009c ad9361_to_refclk_scaler
0000ded8 l     F .text	00000704 ad9361_set_clk_scaler
00027e84 l     O .rodata	0000001d __func__.5033
00027ea4 l     O .rodata	0000001b __func__.5040
00027ec0 l     O .rodata	00000016 __func__.5072
0000f00c l     F .text	0000012c ad9361_calc_rfpll_int_freq
0000f138 l     F .text	000001f8 ad9361_calc_rfpll_int_divder
00027ed8 l     O .rodata	0000001d __func__.5106
00027ef8 l     O .rodata	0000001c __func__.5118
00027f14 l     O .rodata	0000001a __func__.5135
00027f30 l     O .rodata	00000016 __func__.5178
00027f48 l     O .rodata	0000001a __func__.5187
00010100 l     F .text	00000458 ad9361_clk_register
00000000 l    df *ABS*	00000000 ad9361_api.c
00029788 l     O .rwdata	00000018 axiadc_chip_info_tbl
00028050 l     O .rodata	00000016 __func__.4237
00028068 l     O .rodata	00000016 __func__.4245
00028080 l     O .rodata	00000013 __func__.4285
00028094 l     O .rodata	00000020 __func__.4292
000280b4 l     O .rodata	0000001a __func__.4384
000280d0 l     O .rodata	0000001a __func__.4391
00000000 l    df *ABS*	00000000 ad9361_conv.c
00015084 l     F .text	0000009c ad9361_iodelay_set
00015120 l     F .text	00000098 ad9361_midscale_iodelay
000151b8 l     F .text	0000021c ad9361_dig_tune_iodelay
000153d4 l     F .text	00000168 ad9361_dig_tune_verbose_print
000281bc l     O .rodata	00000025 __func__.3851
000281e4 l     O .rodata	00000010 __func__.3901
00000000 l    df *ABS*	00000000 command.c
00000000 l    df *ABS*	00000000 console.c
00029b00 l     O .rwdata	00000011 buffer.2798
00000000 l    df *ABS*	00000000 main.c
00000000 l    df *ABS*	00000000 adc_core.c
00000000 l    df *ABS*	00000000 dac_core.c
0001a6dc l     F .text	000000d4 dds_default_setup
00000000 l    df *ABS*	00000000 platform.c
0001b410 l     F .text	00000050 usleep
00000000 l    df *ABS*	00000000 util.c
00000000 l    df *ABS*	00000000 libgcc2.c
00000000 l    df *ABS*	00000000 libgcc2.c
00000000 l    df *ABS*	00000000 libgcc2.c
00000000 l    df *ABS*	00000000 libgcc2.c
00000000 l    df *ABS*	00000000 libgcc2.c
00000000 l    df *ABS*	00000000 lib2-divmod.c
0001d670 l     F .text	00000074 udivmodsi4
00000000 l    df *ABS*	00000000 adddf3.c
00000000 l    df *ABS*	00000000 gedf2.c
00000000 l    df *ABS*	00000000 ledf2.c
00000000 l    df *ABS*	00000000 muldf3.c
00000000 l    df *ABS*	00000000 subdf3.c
00000000 l    df *ABS*	00000000 fixdfsi.c
00000000 l    df *ABS*	00000000 floatsidf.c
00000000 l    df *ABS*	00000000 floatunsidf.c
00000000 l    df *ABS*	00000000 libgcc2.c
00000000 l    df *ABS*	00000000 libgcc2.c
00000000 l    df *ABS*	00000000 atof.c
00000000 l    df *ABS*	00000000 atoi.c
00000000 l    df *ABS*	00000000 impure.c
00029e40 l     O .rwdata	000000e0 impure_data
00000000 l    df *ABS*	00000000 malloc.c
00000000 l    df *ABS*	00000000 memcpy.c
00000000 l    df *ABS*	00000000 memset.c
00000000 l    df *ABS*	00000000 nano-mallocr.c
00000000 l    df *ABS*	00000000 nano-mallocr.c
00000000 l    df *ABS*	00000000 printf.c
00000000 l    df *ABS*	00000000 putc.c
00000000 l    df *ABS*	00000000 putchar.c
00000000 l    df *ABS*	00000000 puts.c
00000000 l    df *ABS*	00000000 sbrkr.c
00000000 l    df *ABS*	00000000 snprintf.c
00000000 l    df *ABS*	00000000 strlen.c
00000000 l    df *ABS*	00000000 strtod.c
0001fbf0 l     F .text	00000058 match
0001fc48 l     F .text	0000006c sulp
0002934c l     O .rodata	00000014 fpi.2703
00029338 l     O .rodata	00000014 fpinan.2739
00029360 l     O .rodata	00000028 tinytens
00000000 l    df *ABS*	00000000 strtol.c
00000000 l    df *ABS*	00000000 vfprintf.c
00021298 l     F .text	00000074 print_repeat
00000000 l    df *ABS*	00000000 vfprintf.c
00021884 l     F .text	00000074 print_repeat
00000000 l    df *ABS*	00000000 ctype_.c
00029489 l     O .rodata	00000180 _ctype_b
00000000 l    df *ABS*	00000000 fvwrite_small_dev.c
00000000 l    df *ABS*	00000000 fvwrite_small_str.c
00000000 l    df *ABS*	00000000 gdtoa-gethex.c
00021fc8 l     F .text	000000cc rshift
00000000 l    df *ABS*	00000000 gdtoa-hexnan.c
0002283c l     F .text	00000050 L_shift
00000000 l    df *ABS*	00000000 int_errno.c
00000000 l    df *ABS*	00000000 memmove.c
00000000 l    df *ABS*	00000000 mprec.c
0002960c l     O .rodata	0000000c p05.2738
00000000 l    df *ABS*	00000000 nano-mallocr.c
00000000 l    df *ABS*	00000000 strncmp.c
00000000 l    df *ABS*	00000000 writer.c
00000000 l    df *ABS*	00000000 eqsf2.c
00000000 l    df *ABS*	00000000 gesf2.c
00000000 l    df *ABS*	00000000 lesf2.c
00000000 l    df *ABS*	00000000 divdf3.c
00000000 l    df *ABS*	00000000 eqdf2.c
00000000 l    df *ABS*	00000000 truncdfsf2.c
00000000 l    df *ABS*	00000000 alt_load.c
00000000 l    df *ABS*	00000000 alt_main.c
00000000 l    df *ABS*	00000000 alt_sbrk.c
0002a138 l     O .rwdata	00000004 heap_end
00000000 l    df *ABS*	00000000 alt_write.c
00000000 l    df *ABS*	00000000 alt_sys_init.c
00029f4c l     O .rwdata	0000002c jtag_uart
00029f20 l     O .rwdata	0000002c uart_0
00000000 l    df *ABS*	00000000 altera_avalon_jtag_uart_fd.c
00000000 l    df *ABS*	00000000 altera_avalon_jtag_uart_read.c
00000000 l    df *ABS*	00000000 altera_avalon_jtag_uart_write.c
00000000 l    df *ABS*	00000000 altera_avalon_spi.c
00000000 l    df *ABS*	00000000 altera_avalon_uart_fd.c
00000000 l    df *ABS*	00000000 altera_avalon_uart_read.c
00000000 l    df *ABS*	00000000 altera_avalon_uart_write.c
00000000 l    df *ABS*	00000000 alt_close.c
00000000 l    df *ABS*	00000000 alt_dcache_flush_all.c
00000000 l    df *ABS*	00000000 alt_dev.c
00025028 l     F .text	00000010 alt_dev_null_write
00000000 l    df *ABS*	00000000 alt_dev_llist_insert.c
00000000 l    df *ABS*	00000000 alt_errno.c
00000000 l    df *ABS*	00000000 alt_icache_flush_all.c
00000000 l    df *ABS*	00000000 alt_release_fd.c
00000000 l    df *ABS*	00000000 altera_nios2_gen2_irq.c
00000000 l    df *ABS*	00000000 alt_icache_flush.c
00000000 l    df *ABS*	00000000 exit.c
00000000 l    df *ABS*	00000000 __call_atexit.c
00000000 l    df *ABS*	00000000 alt_exit.c
0001f938 g     F .text	00000020 putchar
0002398c g     F .text	00000070 _mprec_log10
000007a0 g     F .text	00000090 ad9361_en_dis_tx
00023a5c g     F .text	00000078 __any_on
00029618 g     O .rodata	00000028 __mprec_tinytens
00012e20 g     F .text	0000006c ad9361_set_rx_lo_freq
000249ec g     F .text	00000044 alt_main
00000968 g     F .text	000001b0 ad9361_bist_loopback
0001b8dc g     F .text	00000040 mdelay
0001f958 g     F .text	00000088 _puts_r
0002ab50 g     O .bss	00000001 tmp
0001418c g     F .text	00000048 ad9361_get_tx_fir_en_dis
0002a154 g       *ABS*	00000000 __flash_rwdata_start
000246a4 g     F .text	0000008c .hidden __eqdf2
0002ac18 g       *ABS*	00000000 __alt_heap_start
0000a71c g     F .text	00000150 ad9361_set_ensm_mode
0001f818 g     F .text	00000054 printf
0000ec9c g     F .text	00000370 ad9361_bbpll_set_rate
00010558 g     F .text	00000560 register_clocks
000139a8 g     F .text	000000ec ad9361_set_tx_attenuation
000137cc g     F .text	00000078 ad9361_set_rx_rf_port_input
0001440c g     F .text	00000044 ad9361_get_tx_auto_cal_en_dis
0002ab54 g     O .bss	00000004 num_5
0001fcb4 g     F .text	00001270 _strtod_r
00018388 g     F .text	00000068 get_dds_tx2_tone1_scale
0001725c g     F .text	00000064 get_rx_rf_bandwidth
00029d14 g     O .rwdata	0000012c tx_fir_config
00022094 g     F .text	00000054 __hexdig_fun
000173bc g     F .text	0000009c set_rx1_gc_mode
0001a800 g     F .text	00000090 dac_start_sync
00022a98 g     F .text	00000068 memmove
00016e08 g     F .text	00000094 set_tx2_attenuation
00013a94 g     F .text	000000c4 ad9361_get_tx_attenuation
00017758 g     F .text	00000068 get_rx_fir_en
0001fb0c g     F .text	000000c0 snprintf
00022b00 g     F .text	000000ec _Balloc
00017560 g     F .text	00000068 get_rx1_rf_gain
000017fc g     F .text	00000188 ad9361_set_tx_atten
0001e068 g     F .text	000000e8 .hidden __gtdf2
00017044 g     F .text	00000100 set_rx_lo_freq
000250f8 g     F .text	00000010 altera_nios2_gen2_irq_init
00000000  w      *UND*	00000000 __errno
00000b54 g     F .text	000000bc ad9361_bist_prbs
00016da0 g     F .text	00000068 get_tx2_attenuation
00021f24 g     F .text	000000a4 __sfvwrite_small_str
00000000 g     F .entry	0000001c __reset
00000b18 g     F .text	0000003c ad9361_get_bist_loopback
00002ddc g     F .text	000000d8 ad9361_init_gain_tables
00012d1c g     F .text	000000ac ad9361_set_rx_sampling_freq
00012cdc g     F .text	00000040 ad9361_get_rx_rf_bandwidth
00012b84 g     F .text	000000e8 ad9361_get_rx_rf_gain
000061d8 g     F .text	000001b0 ad9361_tracking_control
00000020 g       *ABS*	00000000 __flash_exceptions_start
00014cf8 g     F .text	00000040 ad9361_get_trx_rate_gov
0001c830 g     F .text	000000d8 find_first_bit
0000b800 g     F .text	000000e0 ad9361_fastlock_save
0002ab78 g     O .bss	00000004 errno
00017144 g     F .text	00000064 get_rx_samp_freq
0000cfa0 g     F .text	000004a4 ad9361_load_fir_filter_coef
0002ab80 g     O .bss	00000004 alt_argv
00032120 g       *ABS*	00000000 _gp
00017458 g     F .text	0000006c get_rx2_gc_mode
00000150 g     F .text	00000068 ad9361_spi_read
0002ab88 g     O .bss	00000090 dds_st
0001294c g     F .text	00000154 ad9361_get_en_state_machine_mode
00016860 g     F .text	000000a0 get_register
00016ca4 g     F .text	00000068 get_tx1_attenuation
0002a124 g     O .rwdata	00000001 has_split_gt
00029f78 g     O .rwdata	00000180 alt_fd_list
00013bc8 g     F .text	00000040 ad9361_get_tx_rf_bandwidth
00018070 g     F .text	00000090 set_dds_tx2_tone2_freq
0001f928 g     F .text	00000010 _putchar_r
0001f52c g     F .text	00000030 memcpy
0002288c g     F .text	0000020c __hexnan
0001b5e8 g     F .text	0000006c spi_write_then_read
00013cb4 g     F .text	00000058 ad9361_get_tx_sampling_freq
00014450 g     F .text	00000044 ad9361_tx_fastlock_store
0001b654 g     F .text	00000040 alt_avl_gpio_read
0002a128 g     O .rwdata	00000001 cmd_no
0001f2cc g     F .text	000000d8 .hidden __floatsidf
00013ebc g     F .text	00000238 ad9361_get_tx_fir_config
000144d8 g     F .text	0000004c ad9361_tx_fastlock_load
0001b460 g     F .text	0000002c altera_bridge_init
0001e150 g     F .text	000000e8 .hidden __ltdf2
00013d0c g     F .text	0000006c ad9361_set_tx_lo_freq
0000b8e0 g     F .text	00000298 ad9361_mcs
0001a684 g     F .text	0000002c dac_dma_read
0001f9e0 g     F .text	0000001c puts
000184c8 g     F .text	00000068 dds_tx2_tone2_scale
000238e0 g     F .text	000000ac __ratio
00017858 g     F .text	00000058 get_dds_tx1_tone1_freq
0000fd80 g     F .text	000002b8 ad9361_rfpll_set_rate
00002674 g     F .text	000001b4 ad9361_ensm_restore_prev_state
00009de0 g     F .text	00000180 ad9361_get_trx_clock_chain
00018100 g     F .text	0000006c get_dds_tx2_tone1_phase
00024c40 g     F .text	00000074 altera_avalon_jtag_uart_read
0001f4f4 g     F .text	0000001c malloc
0001f7d4 g     F .text	00000044 _printf_r
0001d7a4 g     F .text	00000010 .hidden __udivsi3
000196ac g     F .text	00000048 write_reg_bige
0002ab58 g     O .bss	00000004 num_6
0001b544 g     F .text	0000003c spi_init
00029668 g     O .rodata	000000c8 __mprec_tens
00023d10 g     F .text	000000c0 .hidden __lesf2
0001c9fc g     F .text	0000007c .hidden __fixunsdfsi
00025108 g     F .text	00000058 alt_icache_flush
0001be38 g     F .text	000006d0 clk_set_rate
00017a28 g     F .text	0000006c get_dds_tx1_tone1_phase
00029758 g     O .rwdata	00000030 ad9361_ensm_states
0001963c g     F .text	0000002c _localeconv_r
00022fac g     F .text	00000044 __i2b
000099d8 g     F .text	00000408 ad9361_set_trx_clock_chain
0000226c g     F .text	00000208 ad9361_get_rx_gain
0000e8ac g     F .text	00000198 ad9361_bbpll_recalc_rate
000084dc g     F .text	00000068 ad9361_auxdac_get
0002a125 g     O .rwdata	00000001 have_tdd_tables
0001b91c g     F .text	0000003c msleep_interruptible
00013428 g     F .text	00000098 ad9361_set_rx_fir_en_dis
0001f9fc g     F .text	00000058 _sbrk_r
00017998 g     F .text	00000090 set_dds_tx1_tone2_freq
00018e74 g     F .text	000007c8 console_check_commands
0000fab0 g     F .text	00000154 ad9361_rfpll_recalc_rate
00019668 g     F .text	00000044 read_reg_bige
00016900 g     F .text	000000a8 get_tx_lo_freq
0000bb78 g     F .text	00000110 ad9361_clear_state
0002a13c g     O .rwdata	00000004 alt_max_fd
00014d38 g     F .text	00000048 ad9361_do_calib
00016458 g     F .text	000002a4 ad9361_post_setup
00010ab8 g     F .text	00000514 ad9361_rssi_gain_step_calib
00017350 g     F .text	0000006c get_rx1_gc_mode
0001c508 g     F .text	000000ac int_sqrt
00017b6c g     F .text	0000006c get_dds_tx1_tone2_phase
00010038 g     F .text	000000c8 ad9361_clk_mux_set_parent
0001d7c4 g     F .text	000008a4 .hidden __adddf3
00023bd4 g     F .text	0000007c .hidden __nesf2
00017d18 g     F .text	000000d8 set_dds_tx1_tone1_scale
0000bd2c g     F .text	00000d1c ad9361_setup
00023690 g     F .text	00000110 __b2d
0001d0d8 g     F .text	00000598 .hidden __umoddi3
0002a12c g     O .rwdata	00000004 _global_impure_ptr
0002ac18 g       *ABS*	00000000 __bss_end
0001ac70 g     F .text	00000170 dds_set_frequency
0001cb10 g     F .text	000005c8 .hidden __udivdi3
0001463c g     F .text	00000470 ad9361_set_no_ch_mode
0001c908 g     F .text	0000002c ERR_PTR
00013844 g     F .text	00000044 ad9361_get_rx_rf_port_input
00029640 g     O .rodata	00000028 __mprec_bigtens
00022d74 g     F .text	00000110 __s2b
0001f3a4 g     F .text	000000ac .hidden __floatunsidf
0002345c g     F .text	00000064 __mcmp
0001b4fc g     F .text	00000048 alt_avl_spi_write
0001ba58 g     F .text	00000160 axiadc_set_pnsel
00017a94 g     F .text	000000d8 set_dds_tx1_tone1_phase
00014d80 g     F .text	00000164 ad9361_trx_load_enable_fir
0002126c g     F .text	0000002c strtol
00018da4 g     F .text	00000038 console_init
00009f60 g     F .text	00000738 ad9361_calculate_rf_clock_chain
0002a0f8 g     O .rwdata	00000028 alt_dev_null
000010a8 g     F .text	00000048 ad9361_to_clk
0002ab5c g     O .bss	00000004 num_1
00017940 g     F .text	00000058 get_dds_tx1_tone2_freq
0000e648 g     F .text	00000148 ad9361_clk_factor_round_rate
00025008 g     F .text	00000020 alt_dcache_flush_all
00022e84 g     F .text	00000070 __hi0bits
0001a3e0 g     F .text	0000002c adc_dma_read
0000e5dc g     F .text	0000006c ad9361_clk_factor_recalc_rate
0001f23c g     F .text	00000090 .hidden __fixdfsi
0001a354 g     F .text	00000048 adc_read
00020f24 g     F .text	00000024 strtod
0002a154 g       *ABS*	00000000 __ram_rwdata_end
000036b0 g     F .text	00000164 ad9361_read_rssi
0002a140 g     O .rwdata	00000008 alt_dev_list
00024ab0 g     F .text	000000f0 write
0001f8c8 g     F .text	00000060 _putc_r
0001f4bc g     F .text	00000010 atof
00023c50 g     F .text	000000c0 .hidden __gtsf2
000136e0 g     F .text	000000a8 ad9361_set_rx_quad_track_en_dis
00029758 g       *ABS*	00000000 __ram_rodata_end
0001e150 g     F .text	000000e8 .hidden __ledf2
00016e9c g     F .text	00000068 get_tx_fir_en
000231d0 g     F .text	00000138 __pow5mult
0001d7b4 g     F .text	00000010 .hidden __umodsi3
000138cc g     F .text	00000044 ad9361_rx_fastlock_recall
0000aa1c g     F .text	00000240 ad9361_fastlock_load
000145f4 g     F .text	00000048 ad9361_get_trx_path_clks
0001b7dc g     F .text	00000034 gpio_data
0002ac18 g       *ABS*	00000000 end
0001395c g     F .text	0000004c ad9361_rx_fastlock_save
000131c8 g     F .text	00000260 ad9361_get_rx_fir_config
0002ab60 g     O .bss	00000004 num_2
00003434 g     F .text	0000027c ad9361_set_gain_ctrl_mode
0001f4e0 g     F .text	00000014 _atoi_r
000182b0 g     F .text	000000d8 set_dds_tx2_tone2_phase
00013788 g     F .text	00000044 ad9361_get_rx_quad_track_en_dis
00024e98 g     F .text	00000094 altera_avalon_uart_write
000178b0 g     F .text	00000090 set_dds_tx1_tone1_freq
00030000 g       *ABS*	00000000 __alt_stack_pointer
00014570 g     F .text	00000084 ad9361_set_trx_path_clks
00024df0 g     F .text	00000018 altera_avalon_uart_write_fd
0001f450 g     F .text	0000006c .hidden __clzsi2
0001fa54 g     F .text	000000b8 _snprintf_r
00024cb4 g     F .text	0000003c altera_avalon_jtag_uart_write
0001b9d0 g     F .text	00000044 axiadc_read
00018608 g     F .text	0000002c uart_init
000218f8 g     F .text	0000054c ___vfprintf_internal_r
00016f04 g     F .text	00000098 set_tx_fir_en
0001f584 g     F .text	000000ec _free_r
00014aac g     F .text	00000128 ad9361_do_mcs
0001a40c g     F .text	0000002c adc_dma_write
00025188 g     F .text	000001a4 __call_exitprocs
0001b4b8 g     F .text	00000044 alt_avl_spi_read
000175c8 g     F .text	00000094 set_rx1_rf_gain
0001a5f8 g     F .text	00000048 dac_read
0002ab64 g     O .bss	00000004 num_4
00000020 g     F .text	00000054 _start
0001816c g     F .text	000000d8 set_dds_tx2_tone1_phase
0000f330 g     F .text	00000300 ad9361_rfpll_int_recalc_rate
00023308 g     F .text	00000154 __lshift
00024cf0 g     F .text	000000e8 alt_avalon_spi_command
0001c5b4 g     F .text	000001b8 ilog2
000141d4 g     F .text	00000128 ad9361_get_tx_rssi
00017bd8 g     F .text	000000d8 set_dds_tx1_tone2_phase
0000d444 g     F .text	00000034 ad9361_parse_fir
00024bc8 g     F .text	00000048 alt_sys_init
00018720 g     F .text	00000138 int_to_str
00000074 g     F .text	000000dc ad9361_spi_readm
00023b28 g     F .text	0000004c strncmp
00013e44 g     F .text	00000078 ad9361_set_tx_fir_config
00022ff0 g     F .text	000001e0 __multiply
0001b580 g     F .text	00000068 spi_read
0001b810 g     F .text	00000094 gpio_set_value
00029758 g       *ABS*	00000000 __ram_rwdata_start
00025348 g       *ABS*	00000000 __ram_rodata_start
0001b8a4 g     F .text	00000038 udelay
00023bd4 g     F .text	0000007c .hidden __eqsf2
000237a0 g     F .text	00000140 __d2b
0000cbb0 g     F .text	00000134 ad9361_update_rf_bandwidth
00024c10 g     F .text	00000018 altera_avalon_jtag_uart_read_fd
000004f0 g     F .text	00000110 ad9361_find_opt
00016aa8 g     F .text	00000064 get_tx_samp_freq
000134c0 g     F .text	00000048 ad9361_get_rx_fir_en_dis
00012f58 g     F .text	000000c0 ad9361_get_rx_rssi
00000c4c g     F .text	000001f0 ad9361_bist_tone
0000f9f4 g     F .text	00000058 ad9361_rfpll_dummy_recalc_rate
0000ea44 g     F .text	00000258 ad9361_bbpll_round_rate
0002ac18 g       *ABS*	00000000 __alt_stack_base
00016bc0 g     F .text	00000064 get_tx_rf_bandwidth
0002ab68 g     O .bss	00000004 ad9361_phy
00023dd0 g     F .text	000008d4 .hidden __divdf3
000239fc g     F .text	00000060 __copybits
00013de0 g     F .text	00000064 ad9361_set_tx_lo_int_ext
0001b228 g     F .text	000000d0 dds_update
0001e238 g     F .text	0000072c .hidden __muldf3
00014ee4 g     F .text	000001a0 ad9361_hdl_loopback
000177c0 g     F .text	00000098 set_rx_fir_en
000092d4 g     F .text	00000578 ad9361_ensm_set_state
0001c76c g     F .text	000000c4 do_div
00025038 g     F .text	00000080 alt_dev_llist_insert
00024a30 g     F .text	00000080 sbrk
0002130c g     F .text	0000054c ___svfprintf_internal_r
0001a890 g     F .text	000003e0 dac_init
00015998 g     F .text	00000ac0 ad9361_dig_tune
00023ad4 g     F .text	00000054 _calloc_r
00012e8c g     F .text	00000068 ad9361_get_rx_lo_freq
00021e70 g     F .text	000000b4 __sfvwrite_small_dev
00014494 g     F .text	00000044 ad9361_tx_fastlock_recall
0002ab50 g       *ABS*	00000000 __bss_start
0001f55c g     F .text	00000028 memset
000196f4 g     F .text	00000c60 main
00001984 g     F .text	000000ac ad9361_get_tx_atten
0002ab7c g     O .bss	00000004 alt_envp
0001314c g     F .text	0000007c ad9361_set_rx_fir_config
00024c28 g     F .text	00000018 altera_avalon_jtag_uart_write_fd
00017f30 g     F .text	00000058 get_dds_tx2_tone1_freq
00023d10 g     F .text	000000c0 .hidden __ltsf2
000167ac g     F .text	000000b4 get_help
00012ef4 g     F .text	00000064 ad9361_set_rx_lo_int_ext
0001b2f8 g     F .text	00000118 dac_datasel
00030000 g       *ABS*	00000000 __alt_heap_limit
0001ade0 g     F .text	00000168 dds_set_phase
00024730 g     F .text	000001a0 .hidden __truncdfsf2
00021050 g     F .text	0000021c _strtol_r
00013018 g     F .text	000000e0 ad9361_set_rx_gain_control_mode
0001f670 g     F .text	00000164 _malloc_r
000140f4 g     F .text	00000098 ad9361_set_tx_fir_en_dis
0002a150 g     O .rwdata	00000004 alt_errno
00014374 g     F .text	00000044 ad9361_get_tx_rf_port_output
0000f630 g     F .text	000000b8 ad9361_rfpll_int_round_rate
000142fc g     F .text	00000078 ad9361_set_tx_rf_port_output
0002ac18 g       *ABS*	00000000 __alt_stack_limit
00018634 g     F .text	00000054 uart_write_char
0001f86c g     F .text	0000005c putc
00012aa0 g     F .text	000000e4 ad9361_set_rx_rf_gain
0001d6e4 g     F .text	0000005c .hidden __divsi3
0000d478 g     F .text	0000051c ad9361_validate_enable_fir
000135f4 g     F .text	000000a8 ad9361_set_rx_bbdc_track_en_dis
0001ba14 g     F .text	00000044 axiadc_write
0001a6b0 g     F .text	0000002c dac_dma_write
00002bf4 g     F .text	0000016c ad9361_set_rx_gain
0001bc64 g     F .text	0000002c clk_prepare_enable
000143b8 g     F .text	00000054 ad9361_set_tx_auto_cal_en_dis
00018ddc g     F .text	00000098 console_get_command
00025348 g       *ABS*	00000000 __flash_rodata_start
00016b0c g     F .text	000000b4 set_tx_samp_freq
00018018 g     F .text	00000058 get_dds_tx2_tone2_freq
0000fc04 g     F .text	0000017c ad9361_rfpll_round_rate
000246a4 g     F .text	0000008c .hidden __nedf2
0001ca78 g     F .text	00000098 .hidden __fixunsdfdi
0001a4ac g     F .text	0000014c adc_capture
00024ba0 g     F .text	00000028 alt_irq_init
00016f9c g     F .text	000000a8 get_rx_lo_freq
0000f6e8 g     F .text	0000030c ad9361_rfpll_int_set_rate
000250cc g     F .text	0000002c alt_release_fd
00013508 g     F .text	000000a8 ad9361_set_rx_rfdc_track_en_dis
0001bc90 g     F .text	000001a8 clk_get_rate
00029224 g     O .rodata	00000100 .hidden __clz_tab
00020f48 g     F .text	00000108 strtof
00023c50 g     F .text	000000c0 .hidden __gesf2
000183f0 g     F .text	000000d8 set_dds_tx2_tone1_scale
0001af48 g     F .text	000002e0 dds_set_scale
00023b74 g     F .text	00000060 _write_r
00017cb0 g     F .text	00000068 get_dds_tx1_tone1_scale
00016c24 g     F .text	00000080 set_tx_rf_bandwidth
00017f88 g     F .text	00000090 set_dds_tx2_tone1_freq
00018530 g     F .text	000000d8 set_dds_tx2_tone2_scale
0000fa4c g     F .text	00000064 ad9361_rfpll_dummy_set_rate
0002a130 g     O .rwdata	00000004 _impure_ptr
0002ab84 g     O .bss	00000004 alt_argc
0001a438 g     F .text	00000074 adc_init
0001b694 g     F .text	00000048 alt_avl_gpio_write
000088bc g     F .text	000000c8 ad9361_get_temp
00023638 g     F .text	00000058 __ulp
00017df0 g     F .text	00000068 get_dds_tx1_tone2_scale
0002a148 g     O .rwdata	00000008 alt_fs_list
0000b46c g     F .text	00000394 ad9361_fastlock_recall
00021858 g     F .text	0000002c __vfprintf_internal_unused
00018244 g     F .text	0000006c get_dds_tx2_tone2_phase
0001a7b0 g     F .text	00000050 dac_stop
00014524 g     F .text	0000004c ad9361_tx_fastlock_save
00000e3c g     F .text	00000074 ad9361_get_bist_tone
00010fcc g     F .text	00001838 ad9361_init
00013910 g     F .text	0000004c ad9361_rx_fastlock_load
00000020 g       *ABS*	00000000 __ram_exceptions_start
0001a640 g     F .text	00000044 dac_write
00018688 g     F .text	00000028 uart_read_char
00012c6c g     F .text	00000070 ad9361_set_rx_rf_bandwidth
000166fc g     F .text	000000b0 show_invalid_param_message
00012dc8 g     F .text	00000058 ad9361_get_rx_sampling_freq
0002a120 g     O .rwdata	00000004 alt_stack_limit_value
000169a8 g     F .text	00000100 set_tx_lo_freq
00016d0c g     F .text	00000094 set_tx1_attenuation
0000ca48 g     F .text	00000168 ad9361_do_calib_run
0002a154 g       *ABS*	00000000 _edata
00024dd8 g     F .text	00000018 altera_avalon_uart_read_fd
0001b998 g     F .text	00000038 axiadc_post_setup
00014ca8 g     F .text	00000050 ad9361_set_trx_rate_gov
0002ac18 g       *ABS*	00000000 _end
0001bbb8 g     F .text	000000ac axiadc_idelay_set
0002ab6c g     O .bss	00000004 num_3
000174c4 g     F .text	0000009c set_rx2_gc_mode
00018858 g     F .text	0000054c console_print
00000020 g       *ABS*	00000000 __ram_exceptions_end
00017e58 g     F .text	000000d8 set_dds_tx1_tone2_scale
00000698 g     F .text	00000108 ad9361_reset
0001b704 g     F .text	0000009c gpio_direction
000172c0 g     F .text	00000090 set_rx_rf_bandwidth
00025160 g     F .text	00000028 exit
000234c0 g     F .text	00000178 __mdiff
00000830 g     F .text	00000090 ad9361_en_dis_rx
00013c08 g     F .text	000000ac ad9361_set_tx_sampling_freq
0001d740 g     F .text	00000064 .hidden __modsi3
00013b58 g     F .text	00000070 ad9361_set_tx_rf_bandwidth
0002a134 g     O .rwdata	00000004 __ctype_ptr__
00030000 g       *ABS*	00000000 __alt_data_end
00012804 g     F .text	00000148 ad9361_set_en_state_machine_mode
0001f4cc g     F .text	00000014 atoi
000291e4 g     O .rodata	00000040 sine_lut
00006c10 g     F .text	00000124 ad9361_rf_port_setup
0000e790 g     F .text	0000011c ad9361_clk_factor_set_rate
00029388 g     O .rodata	00000101 _ctype_
00000000 g       *ABS*	00000000 __alt_mem_onchip_ram
000130f8 g     F .text	00000054 ad9361_get_rx_gain_control_mode
00008984 g     F .text	000000c8 ad9361_get_auxadc
0002532c g     F .text	0000001c _exit
0000a698 g     F .text	00000084 ad9361_set_trx_clock_chain_freq
0001553c g     F .text	0000045c ad9361_dig_interface_timing_analysis
00000260 g     F .text	000000bc ad9361_spi_write
0001c994 g     F .text	00000068 .hidden __muldi3
00000c10 g     F .text	0000003c ad9361_get_bist_prbs
000186b0 g     F .text	00000070 uart_write_string
000010f0 g     F .text	00000060 ad9361_from_clk
0001fbcc g     F .text	00000024 strlen
000176c4 g     F .text	00000094 set_rx2_rf_gain
000297a0 g     O .rwdata	00000360 cmd_list
0001e068 g     F .text	000000e8 .hidden __gedf2
000135b0 g     F .text	00000044 ad9361_get_rx_rfdc_track_en_dis
000220e8 g     F .text	00000754 __gethex
0002ab70 g     O .bss	00000004 __malloc_sbrk_start
0001c934 g     F .text	00000060 zmalloc
000250b8 g     F .text	00000014 alt_icache_flush_all
0000ac5c g     F .text	000004ac ad9361_fastlock_store
0001b48c g     F .text	0000002c altera_bridge_uninit
0001b6dc g     F .text	00000028 gpio_init
0002ab74 g     O .bss	00000004 __malloc_free_list
00021e44 g     F .text	0000002c __vfprintf_internal
00013888 g     F .text	00000044 ad9361_rx_fastlock_store
00024e08 g     F .text	00000090 altera_avalon_uart_read
00029b14 g     O .rwdata	00000200 default_init_param
00013d78 g     F .text	00000068 ad9361_get_tx_lo_freq
0001e964 g     F .text	000008d8 .hidden __subdf3
00002474 g     F .text	00000200 ad9361_ensm_force_state
00014bd4 g     F .text	000000d4 ad9361_set_trx_fir_en_dis
00022ef4 g     F .text	000000b8 __lo0bits
0001b958 g     F .text	00000040 axiadc_init
00000600 g     F .text	00000098 ad9361_1rx1tx_channel_map
00024f2c g     F .text	000000dc close
0001a39c g     F .text	00000044 adc_write
000248d0 g     F .text	0000011c alt_load
0001369c g     F .text	00000044 ad9361_get_rx_bbdc_track_en_dis
0001f510 g     F .text	0000001c free
00022c6c g     F .text	00000108 __multadd
000171a8 g     F .text	000000b4 set_rx_samp_freq
00022bec g     F .text	00000080 _Bfree
0001b7a0 g     F .text	0000003c gpio_is_valid
0001765c g     F .text	00000068 get_rx2_rf_gain



Disassembly of section .entry:

00000000 <__reset>:
#if NIOS2_ICACHE_SIZE > 0 && defined(ALT_ALLOW_CODE_AT_RESET) && (!defined(ALT_SIM_OPTIMIZE) || defined(NIOS2_ECC_PRESENT))
    /* Assume the instruction cache size is always a power of two. */
#if NIOS2_ICACHE_SIZE > 0x8000
    movhi r2, %hi(NIOS2_ICACHE_SIZE)
#else
    movui r2, NIOS2_ICACHE_SIZE
   0:	00840014 	movui	r2,4096
#endif

0:
    initi r2
   4:	1001483a 	initi	r2
    addi r2, r2, -NIOS2_ICACHE_LINE_SIZE
   8:	10bff804 	addi	r2,r2,-32
    bgt r2, zero, 0b
   c:	00bffd16 	blt	zero,r2,4 <_gp+0xfffcdee4>
 * Jump to the _start entry point in the .text section if reset code
 * is allowed or if optimizing for RTL simulation.
 */
#if defined(ALT_ALLOW_CODE_AT_RESET) || defined(ALT_SIM_OPTIMIZE)
    /* Jump to the _start entry point in the .text section. */
    movhi r1, %hi(_start)
  10:	00400034 	movhi	at,0
    ori r1, r1, %lo(_start)
  14:	08400814 	ori	at,at,32
    jmp r1
  18:	0800683a 	jmp	at
  1c:	00000000 	call	0 <__reset>

Disassembly of section .text:

00000020 <_start>:

    /* Assume the data cache size is always a power of two. */
#if NIOS2_DCACHE_SIZE > 0x8000
    movhi r2, %hi(NIOS2_DCACHE_SIZE)
#else
    movui r2, NIOS2_DCACHE_SIZE
      20:	00820014 	movui	r2,2048
#endif

0:
    initd 0(r2)
      24:	10000033 	initd	0(r2)
#ifdef NIOS2_ECC_PRESENT
    addi r2, r2, -4
#else
    addi r2, r2, -NIOS2_DCACHE_LINE_SIZE
      28:	10bff804 	addi	r2,r2,-32
#endif
    bgt r2, zero, 0b
      2c:	00bffd16 	blt	zero,r2,24 <_gp+0xfffcdf04>

    /*
     * Now that the caches are initialized, set up the stack pointer and global pointer.
     * The values provided by the linker are assumed to be correctly aligned.
     */
    movhi sp, %hi(__alt_stack_pointer)
      30:	06c000f4 	movhi	sp,3
    ori sp, sp, %lo(__alt_stack_pointer)
      34:	dec00014 	ori	sp,sp,0
    movhi gp, %hi(_gp)
      38:	068000f4 	movhi	gp,3
    ori gp, gp, %lo(_gp)
      3c:	d6884814 	ori	gp,gp,8480
 */
#ifndef ALT_SIM_OPTIMIZE
    /* Log that the BSS is about to be cleared. */
    ALT_LOG_PUTS(alt_log_msg_bss)

    movhi r2, %hi(__bss_start)
      40:	008000b4 	movhi	r2,2
    ori r2, r2, %lo(__bss_start)
      44:	10aad414 	ori	r2,r2,43856

    movhi r3, %hi(__bss_end)
      48:	00c000b4 	movhi	r3,2
    ori r3, r3, %lo(__bss_end)
      4c:	18eb0614 	ori	r3,r3,44056

    beq r2, r3, 1f
      50:	10c00326 	beq	r2,r3,60 <_start+0x40>

0:
    stw zero, (r2)
      54:	10000015 	stw	zero,0(r2)
    addi r2, r2, 4
      58:	10800104 	addi	r2,r2,4
    bltu r2, r3, 0b
      5c:	10fffd36 	bltu	r2,r3,54 <_gp+0xfffcdf34>
     * If the user has selected stack checking then we need to set up a safe
     * value in the stack limit register so that the relocation functions
     * don't think the stack has overflowed (the contents of the rwdata
     * section aren't defined until alt_load() has been called).
     */
    mov   et, zero
      60:	0031883a 	mov	et,zero
#endif

    call alt_load
      64:	00248d00 	call	248d0 <alt_load>
    /*
     * Set up the stack limit (if required).  The linker has set up the
     * copy of the variable which is in memory.
     */

    ldw   et, %gprel(alt_stack_limit_value)(gp)
      68:	d6200017 	ldw	et,-32768(gp)

    /* Log that alt_main is about to be called. */
    ALT_LOG_PUTS(alt_log_msg_alt_main)

    /* Call the C entry point. It should never return. */
    call alt_main
      6c:	00249ec0 	call	249ec <alt_main>

00000070 <alt_after_alt_main>:

    /* Wait in infinite loop in case alt_main does return. */
alt_after_alt_main:
    br alt_after_alt_main
      70:	003fff06 	br	70 <_gp+0xfffcdf50>

00000074 <ad9361_spi_readm>:
 * @param num The number of bytes to read.
 * @return 0 in case of success, negative error code otherwise.
 */
int32_t ad9361_spi_readm(struct spi_device *spi, uint32_t reg,
	uint8_t *rbuf, uint32_t num)
{
      74:	defff604 	addi	sp,sp,-40
      78:	de00012e 	bgeu	sp,et,80 <ad9361_spi_readm+0xc>
      7c:	003b68fa 	trap	3
      80:	dfc00915 	stw	ra,36(sp)
      84:	df000815 	stw	fp,32(sp)
      88:	df000804 	addi	fp,sp,32
      8c:	e13ffc15 	stw	r4,-16(fp)
      90:	e17ffd15 	stw	r5,-12(fp)
      94:	e1bffe15 	stw	r6,-8(fp)
      98:	e1ffff15 	stw	r7,-4(fp)
	uint8_t buf[2];
	int32_t ret;
	uint16_t cmd;

	if (num > MAX_MBYTE_SPI)
      9c:	e0bfff17 	ldw	r2,-4(fp)
      a0:	10800270 	cmpltui	r2,r2,9
      a4:	1000021e 	bne	r2,zero,b0 <ad9361_spi_readm+0x3c>
		return -EINVAL;
      a8:	00bffa84 	movi	r2,-22
      ac:	00002306 	br	13c <ad9361_spi_readm+0xc8>

	cmd = AD_READ | AD_CNT(num) | AD_ADDR(reg);
      b0:	e0bfff17 	ldw	r2,-4(fp)
      b4:	10bfffc4 	addi	r2,r2,-1
      b8:	108001cc 	andi	r2,r2,7
      bc:	1004933a 	slli	r2,r2,12
      c0:	1007883a 	mov	r3,r2
      c4:	e0bffd17 	ldw	r2,-12(fp)
      c8:	1080ffcc 	andi	r2,r2,1023
      cc:	1884b03a 	or	r2,r3,r2
      d0:	e0bff90d 	sth	r2,-28(fp)
	buf[0] = cmd >> 8;
      d4:	e0bff90b 	ldhu	r2,-28(fp)
      d8:	1004d23a 	srli	r2,r2,8
      dc:	e0bffb05 	stb	r2,-20(fp)
	buf[1] = cmd & 0xFF;
      e0:	e0bff90b 	ldhu	r2,-28(fp)
      e4:	e0bffb45 	stb	r2,-19(fp)

	ret = spi_write_then_read(spi, &buf[0], 2, rbuf, num);
      e8:	e0fffb04 	addi	r3,fp,-20
      ec:	e0bfff17 	ldw	r2,-4(fp)
      f0:	d8800015 	stw	r2,0(sp)
      f4:	e13ffc17 	ldw	r4,-16(fp)
      f8:	180b883a 	mov	r5,r3
      fc:	01800084 	movi	r6,2
     100:	e1fffe17 	ldw	r7,-8(fp)
     104:	001b5e80 	call	1b5e8 <spi_write_then_read>
     108:	e0bffa15 	stw	r2,-24(fp)
	if (ret < 0) {
     10c:	e0bffa17 	ldw	r2,-24(fp)
     110:	1000090e 	bge	r2,zero,138 <ad9361_spi_readm+0xc4>
		dev_err(&spi->dev, "Read Error %"PRId32, ret);
     114:	010000b4 	movhi	r4,2
     118:	211a7104 	addi	r4,r4,27076
     11c:	e17ffa17 	ldw	r5,-24(fp)
     120:	001f8180 	call	1f818 <printf>
     124:	010000b4 	movhi	r4,2
     128:	211a7504 	addi	r4,r4,27092
     12c:	001f8180 	call	1f818 <printf>
		return ret;
     130:	e0bffa17 	ldw	r2,-24(fp)
     134:	00000106 	br	13c <ad9361_spi_readm+0xc8>
			dev_dbg(&spi->dev, "%s: reg 0x%"PRIX32" val 0x%X",
			__func__, reg--, rbuf[i]);
	}
#endif

	return 0;
     138:	0005883a 	mov	r2,zero
}
     13c:	e037883a 	mov	sp,fp
     140:	dfc00117 	ldw	ra,4(sp)
     144:	df000017 	ldw	fp,0(sp)
     148:	dec00204 	addi	sp,sp,8
     14c:	f800283a 	ret

00000150 <ad9361_spi_read>:
 * @param spi
 * @param reg The register address.
 * @return The register value or negative error code in case of failure.
 */
int32_t ad9361_spi_read(struct spi_device *spi, uint32_t reg)
{
     150:	defffa04 	addi	sp,sp,-24
     154:	de00012e 	bgeu	sp,et,15c <ad9361_spi_read+0xc>
     158:	003b68fa 	trap	3
     15c:	dfc00515 	stw	ra,20(sp)
     160:	df000415 	stw	fp,16(sp)
     164:	df000404 	addi	fp,sp,16
     168:	e13ffe15 	stw	r4,-8(fp)
     16c:	e17fff15 	stw	r5,-4(fp)
	uint8_t buf;
	int32_t ret;

	ret = ad9361_spi_readm(spi, reg, &buf, 1);
     170:	e0bffd04 	addi	r2,fp,-12
     174:	e13ffe17 	ldw	r4,-8(fp)
     178:	e17fff17 	ldw	r5,-4(fp)
     17c:	100d883a 	mov	r6,r2
     180:	01c00044 	movi	r7,1
     184:	00000740 	call	74 <ad9361_spi_readm>
     188:	e0bffc15 	stw	r2,-16(fp)
	if (ret < 0)
     18c:	e0bffc17 	ldw	r2,-16(fp)
     190:	1000020e 	bge	r2,zero,19c <ad9361_spi_read+0x4c>
		return ret;
     194:	e0bffc17 	ldw	r2,-16(fp)
     198:	00000206 	br	1a4 <ad9361_spi_read+0x54>

	return buf;
     19c:	e0bffd03 	ldbu	r2,-12(fp)
     1a0:	10803fcc 	andi	r2,r2,255
}
     1a4:	e037883a 	mov	sp,fp
     1a8:	dfc00117 	ldw	ra,4(sp)
     1ac:	df000017 	ldw	fp,0(sp)
     1b0:	dec00204 	addi	sp,sp,8
     1b4:	f800283a 	ret

000001b8 <__ad9361_spi_readf>:
 * @param offset The mask offset.
 * @return The bits value or negative error code in case of failure.
 */
static int32_t __ad9361_spi_readf(struct spi_device *spi, uint32_t reg,
	uint32_t mask, uint32_t offset)
{
     1b8:	defff804 	addi	sp,sp,-32
     1bc:	de00012e 	bgeu	sp,et,1c4 <__ad9361_spi_readf+0xc>
     1c0:	003b68fa 	trap	3
     1c4:	dfc00715 	stw	ra,28(sp)
     1c8:	df000615 	stw	fp,24(sp)
     1cc:	df000604 	addi	fp,sp,24
     1d0:	e13ffc15 	stw	r4,-16(fp)
     1d4:	e17ffd15 	stw	r5,-12(fp)
     1d8:	e1bffe15 	stw	r6,-8(fp)
     1dc:	e1ffff15 	stw	r7,-4(fp)
	uint8_t buf;
	int32_t ret;

	if (!mask)
     1e0:	e0bffe17 	ldw	r2,-8(fp)
     1e4:	1000021e 	bne	r2,zero,1f0 <__ad9361_spi_readf+0x38>
		return -EINVAL;
     1e8:	00bffa84 	movi	r2,-22
     1ec:	00001706 	br	24c <__ad9361_spi_readf+0x94>

	ret = ad9361_spi_readm(spi, reg, &buf, 1);
     1f0:	e0bffb04 	addi	r2,fp,-20
     1f4:	e13ffc17 	ldw	r4,-16(fp)
     1f8:	e17ffd17 	ldw	r5,-12(fp)
     1fc:	100d883a 	mov	r6,r2
     200:	01c00044 	movi	r7,1
     204:	00000740 	call	74 <ad9361_spi_readm>
     208:	e0bffa15 	stw	r2,-24(fp)
	if (ret < 0)
     20c:	e0bffa17 	ldw	r2,-24(fp)
     210:	1000020e 	bge	r2,zero,21c <__ad9361_spi_readf+0x64>
		return ret;
     214:	e0bffa17 	ldw	r2,-24(fp)
     218:	00000c06 	br	24c <__ad9361_spi_readf+0x94>

	buf &= mask;
     21c:	e0bffe17 	ldw	r2,-8(fp)
     220:	1007883a 	mov	r3,r2
     224:	e0bffb03 	ldbu	r2,-20(fp)
     228:	1884703a 	and	r2,r3,r2
     22c:	e0bffb05 	stb	r2,-20(fp)
	buf >>= offset;
     230:	e0bffb03 	ldbu	r2,-20(fp)
     234:	10c03fcc 	andi	r3,r2,255
     238:	e0bfff17 	ldw	r2,-4(fp)
     23c:	1885d83a 	sra	r2,r3,r2
     240:	e0bffb05 	stb	r2,-20(fp)

	return buf;
     244:	e0bffb03 	ldbu	r2,-20(fp)
     248:	10803fcc 	andi	r2,r2,255
}
     24c:	e037883a 	mov	sp,fp
     250:	dfc00117 	ldw	ra,4(sp)
     254:	df000017 	ldw	fp,0(sp)
     258:	dec00204 	addi	sp,sp,8
     25c:	f800283a 	ret

00000260 <ad9361_spi_write>:
 * @param val The value of the register.
 * @return 0 in case of success, negative error code otherwise.
 */
int32_t ad9361_spi_write(struct spi_device *spi,
	uint32_t reg, uint32_t val)
{
     260:	defff704 	addi	sp,sp,-36
     264:	de00012e 	bgeu	sp,et,26c <ad9361_spi_write+0xc>
     268:	003b68fa 	trap	3
     26c:	dfc00815 	stw	ra,32(sp)
     270:	df000715 	stw	fp,28(sp)
     274:	df000704 	addi	fp,sp,28
     278:	e13ffd15 	stw	r4,-12(fp)
     27c:	e17ffe15 	stw	r5,-8(fp)
     280:	e1bfff15 	stw	r6,-4(fp)
	uint8_t buf[3];
	int32_t ret;
	uint16_t cmd;

	cmd = AD_WRITE | AD_CNT(1) | AD_ADDR(reg);
     284:	e0bffe17 	ldw	r2,-8(fp)
     288:	1080ffcc 	andi	r2,r2,1023
     28c:	1007883a 	mov	r3,r2
     290:	00a00004 	movi	r2,-32768
     294:	1884b03a 	or	r2,r3,r2
     298:	e0bffa0d 	sth	r2,-24(fp)
	buf[0] = cmd >> 8;
     29c:	e0bffa0b 	ldhu	r2,-24(fp)
     2a0:	1004d23a 	srli	r2,r2,8
     2a4:	e0bffc05 	stb	r2,-16(fp)
	buf[1] = cmd & 0xFF;
     2a8:	e0bffa0b 	ldhu	r2,-24(fp)
     2ac:	e0bffc45 	stb	r2,-15(fp)
	buf[2] = val;
     2b0:	e0bfff17 	ldw	r2,-4(fp)
     2b4:	e0bffc85 	stb	r2,-14(fp)

	ret = spi_write_then_read(spi, buf, 3, NULL, 0);
     2b8:	e0bffc04 	addi	r2,fp,-16
     2bc:	d8000015 	stw	zero,0(sp)
     2c0:	e13ffd17 	ldw	r4,-12(fp)
     2c4:	100b883a 	mov	r5,r2
     2c8:	018000c4 	movi	r6,3
     2cc:	000f883a 	mov	r7,zero
     2d0:	001b5e80 	call	1b5e8 <spi_write_then_read>
     2d4:	e0bffb15 	stw	r2,-20(fp)
	if (ret < 0) {
     2d8:	e0bffb17 	ldw	r2,-20(fp)
     2dc:	1000090e 	bge	r2,zero,304 <ad9361_spi_write+0xa4>
		dev_err(&spi->dev, "Write Error %"PRId32, ret);
     2e0:	010000b4 	movhi	r4,2
     2e4:	211a7604 	addi	r4,r4,27096
     2e8:	e17ffb17 	ldw	r5,-20(fp)
     2ec:	001f8180 	call	1f818 <printf>
     2f0:	010000b4 	movhi	r4,2
     2f4:	211a7504 	addi	r4,r4,27092
     2f8:	001f8180 	call	1f818 <printf>
		return ret;
     2fc:	e0bffb17 	ldw	r2,-20(fp)
     300:	00000106 	br	308 <ad9361_spi_write+0xa8>

#ifdef _DEBUG
	dev_dbg(&spi->dev, "%s: reg 0x%"PRIX32" val 0x%X", __func__, reg, buf[2]);
#endif

	return 0;
     304:	0005883a 	mov	r2,zero
}
     308:	e037883a 	mov	sp,fp
     30c:	dfc00117 	ldw	ra,4(sp)
     310:	df000017 	ldw	fp,0(sp)
     314:	dec00204 	addi	sp,sp,8
     318:	f800283a 	ret

0000031c <__ad9361_spi_writef>:
 * @param val The bits value.
 * @return 0 in case of success, negative error code otherwise.
 */
static int32_t __ad9361_spi_writef(struct spi_device *spi, uint32_t reg,
	uint32_t mask, uint32_t offset, uint32_t val)
{
     31c:	defff804 	addi	sp,sp,-32
     320:	de00012e 	bgeu	sp,et,328 <__ad9361_spi_writef+0xc>
     324:	003b68fa 	trap	3
     328:	dfc00715 	stw	ra,28(sp)
     32c:	df000615 	stw	fp,24(sp)
     330:	df000604 	addi	fp,sp,24
     334:	e13ffc15 	stw	r4,-16(fp)
     338:	e17ffd15 	stw	r5,-12(fp)
     33c:	e1bffe15 	stw	r6,-8(fp)
     340:	e1ffff15 	stw	r7,-4(fp)
	uint8_t buf;
	int32_t ret;

	if (!mask)
     344:	e0bffe17 	ldw	r2,-8(fp)
     348:	1000021e 	bne	r2,zero,354 <__ad9361_spi_writef+0x38>
		return -EINVAL;
     34c:	00bffa84 	movi	r2,-22
     350:	00002106 	br	3d8 <__ad9361_spi_writef+0xbc>

	ret = ad9361_spi_readm(spi, reg, &buf, 1);
     354:	e0bffb04 	addi	r2,fp,-20
     358:	e13ffc17 	ldw	r4,-16(fp)
     35c:	e17ffd17 	ldw	r5,-12(fp)
     360:	100d883a 	mov	r6,r2
     364:	01c00044 	movi	r7,1
     368:	00000740 	call	74 <ad9361_spi_readm>
     36c:	e0bffa15 	stw	r2,-24(fp)
	if (ret < 0)
     370:	e0bffa17 	ldw	r2,-24(fp)
     374:	1000020e 	bge	r2,zero,380 <__ad9361_spi_writef+0x64>
		return ret;
     378:	e0bffa17 	ldw	r2,-24(fp)
     37c:	00001606 	br	3d8 <__ad9361_spi_writef+0xbc>

	buf &= ~mask;
     380:	e0bffe17 	ldw	r2,-8(fp)
     384:	0084303a 	nor	r2,zero,r2
     388:	1007883a 	mov	r3,r2
     38c:	e0bffb03 	ldbu	r2,-20(fp)
     390:	1884703a 	and	r2,r3,r2
     394:	e0bffb05 	stb	r2,-20(fp)
	buf |= ((val << offset) & mask);
     398:	e0bfff17 	ldw	r2,-4(fp)
     39c:	e0c00217 	ldw	r3,8(fp)
     3a0:	1884983a 	sll	r2,r3,r2
     3a4:	1007883a 	mov	r3,r2
     3a8:	e0bffe17 	ldw	r2,-8(fp)
     3ac:	1884703a 	and	r2,r3,r2
     3b0:	1007883a 	mov	r3,r2
     3b4:	e0bffb03 	ldbu	r2,-20(fp)
     3b8:	1884b03a 	or	r2,r3,r2
     3bc:	e0bffb05 	stb	r2,-20(fp)

	return ad9361_spi_write(spi, reg, buf);
     3c0:	e0bffb03 	ldbu	r2,-20(fp)
     3c4:	10803fcc 	andi	r2,r2,255
     3c8:	e13ffc17 	ldw	r4,-16(fp)
     3cc:	e17ffd17 	ldw	r5,-12(fp)
     3d0:	100d883a 	mov	r6,r2
     3d4:	00002600 	call	260 <ad9361_spi_write>
}
     3d8:	e037883a 	mov	sp,fp
     3dc:	dfc00117 	ldw	ra,4(sp)
     3e0:	df000017 	ldw	fp,0(sp)
     3e4:	dec00204 	addi	sp,sp,8
     3e8:	f800283a 	ret

000003ec <ad9361_spi_writem>:
 * @param num The number of bytes to read.
 * @return 0 in case of success, negative error code otherwise.
 */
static int32_t ad9361_spi_writem(struct spi_device *spi,
	uint32_t reg, uint8_t *tbuf, uint32_t num)
{
     3ec:	defff404 	addi	sp,sp,-48
     3f0:	de00012e 	bgeu	sp,et,3f8 <ad9361_spi_writem+0xc>
     3f4:	003b68fa 	trap	3
     3f8:	dfc00b15 	stw	ra,44(sp)
     3fc:	df000a15 	stw	fp,40(sp)
     400:	df000a04 	addi	fp,sp,40
     404:	e13ffc15 	stw	r4,-16(fp)
     408:	e17ffd15 	stw	r5,-12(fp)
     40c:	e1bffe15 	stw	r6,-8(fp)
     410:	e1ffff15 	stw	r7,-4(fp)
	uint8_t buf[10];
	int32_t ret;
	uint16_t cmd;

	if (num > MAX_MBYTE_SPI)
     414:	e0bfff17 	ldw	r2,-4(fp)
     418:	10800270 	cmpltui	r2,r2,9
     41c:	1000021e 	bne	r2,zero,428 <ad9361_spi_writem+0x3c>
		return -EINVAL;
     420:	00bffa84 	movi	r2,-22
     424:	00002d06 	br	4dc <ad9361_spi_writem+0xf0>

	cmd = AD_WRITE | AD_CNT(num) | AD_ADDR(reg);
     428:	e0bfff17 	ldw	r2,-4(fp)
     42c:	10bfffc4 	addi	r2,r2,-1
     430:	108001cc 	andi	r2,r2,7
     434:	1004933a 	slli	r2,r2,12
     438:	1007883a 	mov	r3,r2
     43c:	e0bffd17 	ldw	r2,-12(fp)
     440:	1080ffcc 	andi	r2,r2,1023
     444:	1884b03a 	or	r2,r3,r2
     448:	1007883a 	mov	r3,r2
     44c:	00a00004 	movi	r2,-32768
     450:	1884b03a 	or	r2,r3,r2
     454:	e0bff70d 	sth	r2,-36(fp)
	buf[0] = cmd >> 8;
     458:	e0bff70b 	ldhu	r2,-36(fp)
     45c:	1004d23a 	srli	r2,r2,8
     460:	e0bff905 	stb	r2,-28(fp)
	buf[1] = cmd & 0xFF;
     464:	e0bff70b 	ldhu	r2,-36(fp)
     468:	e0bff945 	stb	r2,-27(fp)

#ifndef ALTERA_PLATFORM
	memcpy(&buf[2], tbuf, num);
     46c:	e0bff904 	addi	r2,fp,-28
     470:	10800084 	addi	r2,r2,2
     474:	1009883a 	mov	r4,r2
     478:	e17ffe17 	ldw	r5,-8(fp)
     47c:	e1bfff17 	ldw	r6,-4(fp)
     480:	001f52c0 	call	1f52c <memcpy>
#else
	int32_t i;
	for (i = 0; i < num; i++)
		buf[2 + i] =  tbuf[i];
#endif
	ret = spi_write_then_read(spi, buf, num + 2, NULL, 0);
     484:	e0bfff17 	ldw	r2,-4(fp)
     488:	10800084 	addi	r2,r2,2
     48c:	e0fff904 	addi	r3,fp,-28
     490:	d8000015 	stw	zero,0(sp)
     494:	e13ffc17 	ldw	r4,-16(fp)
     498:	180b883a 	mov	r5,r3
     49c:	100d883a 	mov	r6,r2
     4a0:	000f883a 	mov	r7,zero
     4a4:	001b5e80 	call	1b5e8 <spi_write_then_read>
     4a8:	e0bff815 	stw	r2,-32(fp)
	if (ret < 0) {
     4ac:	e0bff817 	ldw	r2,-32(fp)
     4b0:	1000090e 	bge	r2,zero,4d8 <ad9361_spi_writem+0xec>
		dev_err(&spi->dev, "Write Error %"PRId32, ret);
     4b4:	010000b4 	movhi	r4,2
     4b8:	211a7604 	addi	r4,r4,27096
     4bc:	e17ff817 	ldw	r5,-32(fp)
     4c0:	001f8180 	call	1f818 <printf>
     4c4:	010000b4 	movhi	r4,2
     4c8:	211a7504 	addi	r4,r4,27092
     4cc:	001f8180 	call	1f818 <printf>
		return ret;
     4d0:	e0bff817 	ldw	r2,-32(fp)
     4d4:	00000106 	br	4dc <ad9361_spi_writem+0xf0>
		for (i = 0; i < num; i++)
			dev_dbg(&spi->dev, "Reg 0x%"PRIX32" val 0x%X", reg--, tbuf[i]);
	}
#endif

	return 0;
     4d8:	0005883a 	mov	r2,zero
}
     4dc:	e037883a 	mov	sp,fp
     4e0:	dfc00117 	ldw	ra,4(sp)
     4e4:	df000017 	ldw	fp,0(sp)
     4e8:	dec00204 	addi	sp,sp,8
     4ec:	f800283a 	ret

000004f0 <ad9361_find_opt>:
 * @param field
 * @param ret_start
 * @return The optimal delay in case of success, negative error code otherwise.
 */
int32_t ad9361_find_opt(uint8_t *field, uint32_t size, uint32_t *ret_start)
{
     4f0:	defff704 	addi	sp,sp,-36
     4f4:	de00012e 	bgeu	sp,et,4fc <ad9361_find_opt+0xc>
     4f8:	003b68fa 	trap	3
     4fc:	df000815 	stw	fp,32(sp)
     500:	df000804 	addi	fp,sp,32
     504:	e13ffd15 	stw	r4,-12(fp)
     508:	e17ffe15 	stw	r5,-8(fp)
     50c:	e1bfff15 	stw	r6,-4(fp)
	int32_t i, cnt = 0, max_cnt = 0, start, max_start = 0;
     510:	e03ff915 	stw	zero,-28(fp)
     514:	e03ffa15 	stw	zero,-24(fp)
     518:	e03ffc15 	stw	zero,-16(fp)

	for(i = 0, start = -1; i < (int64_t)size; i++) {
     51c:	e03ff815 	stw	zero,-32(fp)
     520:	013fffc4 	movi	r4,-1
     524:	e13ffb15 	stw	r4,-20(fp)
     528:	00001c06 	br	59c <ad9361_find_opt+0xac>
		if (field[i] == 0) {
     52c:	e13ff817 	ldw	r4,-32(fp)
     530:	e17ffd17 	ldw	r5,-12(fp)
     534:	2909883a 	add	r4,r5,r4
     538:	21000003 	ldbu	r4,0(r4)
     53c:	21003fcc 	andi	r4,r4,255
     540:	2000091e 	bne	r4,zero,568 <ad9361_find_opt+0x78>
			if (start == -1)
     544:	e13ffb17 	ldw	r4,-20(fp)
     548:	213fffd8 	cmpnei	r4,r4,-1
     54c:	2000021e 	bne	r4,zero,558 <ad9361_find_opt+0x68>
				start = i;
     550:	e13ff817 	ldw	r4,-32(fp)
     554:	e13ffb15 	stw	r4,-20(fp)
			cnt++;
     558:	e13ff917 	ldw	r4,-28(fp)
     55c:	21000044 	addi	r4,r4,1
     560:	e13ff915 	stw	r4,-28(fp)
     564:	00000a06 	br	590 <ad9361_find_opt+0xa0>
		} else {
			if (cnt > max_cnt) {
     568:	e13ff917 	ldw	r4,-28(fp)
     56c:	e17ffa17 	ldw	r5,-24(fp)
     570:	2900040e 	bge	r5,r4,584 <ad9361_find_opt+0x94>
				max_cnt = cnt;
     574:	e13ff917 	ldw	r4,-28(fp)
     578:	e13ffa15 	stw	r4,-24(fp)
				max_start = start;
     57c:	e13ffb17 	ldw	r4,-20(fp)
     580:	e13ffc15 	stw	r4,-16(fp)
			}
			start = -1;
     584:	013fffc4 	movi	r4,-1
     588:	e13ffb15 	stw	r4,-20(fp)
			cnt = 0;
     58c:	e03ff915 	stw	zero,-28(fp)
 */
int32_t ad9361_find_opt(uint8_t *field, uint32_t size, uint32_t *ret_start)
{
	int32_t i, cnt = 0, max_cnt = 0, start, max_start = 0;

	for(i = 0, start = -1; i < (int64_t)size; i++) {
     590:	e13ff817 	ldw	r4,-32(fp)
     594:	21000044 	addi	r4,r4,1
     598:	e13ff815 	stw	r4,-32(fp)
     59c:	e13ff817 	ldw	r4,-32(fp)
     5a0:	200f883a 	mov	r7,r4
     5a4:	2009d7fa 	srai	r4,r4,31
     5a8:	2011883a 	mov	r8,r4
     5ac:	e13ffe17 	ldw	r4,-8(fp)
     5b0:	2005883a 	mov	r2,r4
     5b4:	0007883a 	mov	r3,zero
     5b8:	40ffdc16 	blt	r8,r3,52c <_gp+0xfffce40c>
     5bc:	1a00011e 	bne	r3,r8,5c4 <ad9361_find_opt+0xd4>
     5c0:	38bfda36 	bltu	r7,r2,52c <_gp+0xfffce40c>
			start = -1;
			cnt = 0;
		}
	}

	if (cnt > max_cnt) {
     5c4:	e0bff917 	ldw	r2,-28(fp)
     5c8:	e0fffa17 	ldw	r3,-24(fp)
     5cc:	1880040e 	bge	r3,r2,5e0 <ad9361_find_opt+0xf0>
		max_cnt = cnt;
     5d0:	e0bff917 	ldw	r2,-28(fp)
     5d4:	e0bffa15 	stw	r2,-24(fp)
		max_start = start;
     5d8:	e0bffb17 	ldw	r2,-20(fp)
     5dc:	e0bffc15 	stw	r2,-16(fp)
	}

	*ret_start = max_start;
     5e0:	e0fffc17 	ldw	r3,-16(fp)
     5e4:	e0bfff17 	ldw	r2,-4(fp)
     5e8:	10c00015 	stw	r3,0(r2)

	return max_cnt;
     5ec:	e0bffa17 	ldw	r2,-24(fp)
}
     5f0:	e037883a 	mov	sp,fp
     5f4:	df000017 	ldw	fp,0(sp)
     5f8:	dec00104 	addi	sp,sp,4
     5fc:	f800283a 	ret

00000600 <ad9361_1rx1tx_channel_map>:
 * @param map Map
 * @param channel Channel
 * @return The channel number.
 */
int32_t ad9361_1rx1tx_channel_map(struct ad9361_rf_phy *phy, bool tx, int32_t channel)
{
     600:	defffb04 	addi	sp,sp,-20
     604:	de00012e 	bgeu	sp,et,60c <ad9361_1rx1tx_channel_map+0xc>
     608:	003b68fa 	trap	3
     60c:	df000415 	stw	fp,16(sp)
     610:	df000404 	addi	fp,sp,16
     614:	e13ffd15 	stw	r4,-12(fp)
     618:	2805883a 	mov	r2,r5
     61c:	e1bfff15 	stw	r6,-4(fp)
     620:	e0bffe05 	stb	r2,-8(fp)
	uint32_t map;

	if (phy->pdata->rx2tx2)
     624:	e0bffd17 	ldw	r2,-12(fp)
     628:	10803017 	ldw	r2,192(r2)
     62c:	10800003 	ldbu	r2,0(r2)
     630:	10803fcc 	andi	r2,r2,255
     634:	10000226 	beq	r2,zero,640 <ad9361_1rx1tx_channel_map+0x40>
		return channel;
     638:	e0bfff17 	ldw	r2,-4(fp)
     63c:	00001206 	br	688 <ad9361_1rx1tx_channel_map+0x88>

	if (tx)
     640:	e0bffe03 	ldbu	r2,-8(fp)
     644:	10000526 	beq	r2,zero,65c <ad9361_1rx1tx_channel_map+0x5c>
		map = phy->pdata->rx1tx1_mode_use_tx_num;
     648:	e0bffd17 	ldw	r2,-12(fp)
     64c:	10803017 	ldw	r2,192(r2)
     650:	10800b17 	ldw	r2,44(r2)
     654:	e0bffc15 	stw	r2,-16(fp)
     658:	00000406 	br	66c <ad9361_1rx1tx_channel_map+0x6c>
	else
		map = phy->pdata->rx1tx1_mode_use_rx_num;
     65c:	e0bffd17 	ldw	r2,-12(fp)
     660:	10803017 	ldw	r2,192(r2)
     664:	10800a17 	ldw	r2,40(r2)
     668:	e0bffc15 	stw	r2,-16(fp)

	if (map == 2)
     66c:	e0bffc17 	ldw	r2,-16(fp)
     670:	10800098 	cmpnei	r2,r2,2
     674:	1000031e 	bne	r2,zero,684 <ad9361_1rx1tx_channel_map+0x84>
		return channel + 1;
     678:	e0bfff17 	ldw	r2,-4(fp)
     67c:	10800044 	addi	r2,r2,1
     680:	00000106 	br	688 <ad9361_1rx1tx_channel_map+0x88>

	return channel;
     684:	e0bfff17 	ldw	r2,-4(fp)
}
     688:	e037883a 	mov	sp,fp
     68c:	df000017 	ldw	fp,0(sp)
     690:	dec00104 	addi	sp,sp,4
     694:	f800283a 	ret

00000698 <ad9361_reset>:
 * AD9361 Device Reset
 * @param phy The AD9361 state structure.
 * @return 0 in case of success, negative error code otherwise.
 */
int32_t ad9361_reset(struct ad9361_rf_phy *phy)
{
     698:	defffd04 	addi	sp,sp,-12
     69c:	de00012e 	bgeu	sp,et,6a4 <ad9361_reset+0xc>
     6a0:	003b68fa 	trap	3
     6a4:	dfc00215 	stw	ra,8(sp)
     6a8:	df000115 	stw	fp,4(sp)
     6ac:	df000104 	addi	fp,sp,4
     6b0:	e13fff15 	stw	r4,-4(fp)
	if (gpio_is_valid(phy->pdata->gpio_resetb)) {
     6b4:	e0bfff17 	ldw	r2,-4(fp)
     6b8:	10803017 	ldw	r2,192(r2)
     6bc:	10805d17 	ldw	r2,372(r2)
     6c0:	1009883a 	mov	r4,r2
     6c4:	001b7a00 	call	1b7a0 <gpio_is_valid>
     6c8:	10803fcc 	andi	r2,r2,255
     6cc:	10001a26 	beq	r2,zero,738 <ad9361_reset+0xa0>
		gpio_set_value(phy->pdata->gpio_resetb, 0);
     6d0:	e0bfff17 	ldw	r2,-4(fp)
     6d4:	10803017 	ldw	r2,192(r2)
     6d8:	10805d17 	ldw	r2,372(r2)
     6dc:	1009883a 	mov	r4,r2
     6e0:	000b883a 	mov	r5,zero
     6e4:	001b8100 	call	1b810 <gpio_set_value>
		mdelay(1);
     6e8:	01000044 	movi	r4,1
     6ec:	001b8dc0 	call	1b8dc <mdelay>
		gpio_set_value(phy->pdata->gpio_resetb, 1);
     6f0:	e0bfff17 	ldw	r2,-4(fp)
     6f4:	10803017 	ldw	r2,192(r2)
     6f8:	10805d17 	ldw	r2,372(r2)
     6fc:	1009883a 	mov	r4,r2
     700:	01400044 	movi	r5,1
     704:	001b8100 	call	1b810 <gpio_set_value>
		mdelay(1);
     708:	01000044 	movi	r4,1
     70c:	001b8dc0 	call	1b8dc <mdelay>
		dev_dbg(&phy->spi->dev, "%s: by GPIO", __func__);
     710:	010000b4 	movhi	r4,2
     714:	211a7a04 	addi	r4,r4,27112
     718:	014000b4 	movhi	r5,2
     71c:	295e6f04 	addi	r5,r5,31164
     720:	001f8180 	call	1f818 <printf>
     724:	010000b4 	movhi	r4,2
     728:	211a7504 	addi	r4,r4,27092
     72c:	001f8180 	call	1f818 <printf>
		return 0;
     730:	0005883a 	mov	r2,zero
     734:	00001506 	br	78c <ad9361_reset+0xf4>
	/* SPI Soft Reset was removed from the register map, since it doesn't
	 * work reliably. Without a prober HW reset randomness may happen.
	 * Please specify a RESET GPIO.
	 */

	ad9361_spi_write(phy->spi, REG_SPI_CONF, SOFT_RESET | _SOFT_RESET);
     738:	e0bfff17 	ldw	r2,-4(fp)
     73c:	10800117 	ldw	r2,4(r2)
     740:	1009883a 	mov	r4,r2
     744:	000b883a 	mov	r5,zero
     748:	01802044 	movi	r6,129
     74c:	00002600 	call	260 <ad9361_spi_write>
	ad9361_spi_write(phy->spi, REG_SPI_CONF, 0x0);
     750:	e0bfff17 	ldw	r2,-4(fp)
     754:	10800117 	ldw	r2,4(r2)
     758:	1009883a 	mov	r4,r2
     75c:	000b883a 	mov	r5,zero
     760:	000d883a 	mov	r6,zero
     764:	00002600 	call	260 <ad9361_spi_write>
	dev_err(&phy->spi->dev,
     768:	010000b4 	movhi	r4,2
     76c:	211a7d04 	addi	r4,r4,27124
     770:	014000b4 	movhi	r5,2
     774:	295e6f04 	addi	r5,r5,31164
     778:	001f8180 	call	1f818 <printf>
     77c:	010000b4 	movhi	r4,2
     780:	211a7504 	addi	r4,r4,27092
     784:	001f8180 	call	1f818 <printf>
		 "%s: by SPI, this may cause unpredicted behavior!", __func__);

	return -ENODEV;
     788:	00bffb44 	movi	r2,-19
}
     78c:	e037883a 	mov	sp,fp
     790:	dfc00117 	ldw	ra,4(sp)
     794:	df000017 	ldw	fp,0(sp)
     798:	dec00204 	addi	sp,sp,8
     79c:	f800283a 	ret

000007a0 <ad9361_en_dis_tx>:
 * @param tx_if The desired channel number [1, 2].
 * @param enable Enable/disable option.
 * @return 0 in case of success, negative error code otherwise.
 */
int32_t ad9361_en_dis_tx(struct ad9361_rf_phy *phy, uint32_t tx_if, uint32_t enable)
{
     7a0:	defff804 	addi	sp,sp,-32
     7a4:	de00012e 	bgeu	sp,et,7ac <ad9361_en_dis_tx+0xc>
     7a8:	003b68fa 	trap	3
     7ac:	dfc00715 	stw	ra,28(sp)
     7b0:	df000615 	stw	fp,24(sp)
     7b4:	dc400515 	stw	r17,20(sp)
     7b8:	dc000415 	stw	r16,16(sp)
     7bc:	df000604 	addi	fp,sp,24
     7c0:	e13ffb15 	stw	r4,-20(fp)
     7c4:	e17ffc15 	stw	r5,-16(fp)
     7c8:	e1bffd15 	stw	r6,-12(fp)
	if ((tx_if & enable) > 1 && AD9364_DEVICE && enable)
		return -EINVAL;

	return ad9361_spi_writef(phy->spi, REG_TX_ENABLE_FILTER_CTRL,
     7cc:	e0bffb17 	ldw	r2,-20(fp)
     7d0:	14400117 	ldw	r17,4(r2)
     7d4:	e0bffc17 	ldw	r2,-16(fp)
     7d8:	100491ba 	slli	r2,r2,6
     7dc:	14003fcc 	andi	r16,r2,255
     7e0:	e0bffc17 	ldw	r2,-16(fp)
     7e4:	100491ba 	slli	r2,r2,6
     7e8:	10803fcc 	andi	r2,r2,255
     7ec:	1009883a 	mov	r4,r2
     7f0:	001c8300 	call	1c830 <find_first_bit>
     7f4:	1007883a 	mov	r3,r2
     7f8:	e0bffd17 	ldw	r2,-12(fp)
     7fc:	d8800015 	stw	r2,0(sp)
     800:	8809883a 	mov	r4,r17
     804:	01400084 	movi	r5,2
     808:	800d883a 	mov	r6,r16
     80c:	180f883a 	mov	r7,r3
     810:	000031c0 	call	31c <__ad9361_spi_writef>
		TX_CHANNEL_ENABLE(tx_if), enable);
}
     814:	e6fffe04 	addi	sp,fp,-8
     818:	dfc00317 	ldw	ra,12(sp)
     81c:	df000217 	ldw	fp,8(sp)
     820:	dc400117 	ldw	r17,4(sp)
     824:	dc000017 	ldw	r16,0(sp)
     828:	dec00404 	addi	sp,sp,16
     82c:	f800283a 	ret

00000830 <ad9361_en_dis_rx>:
 * @param tx_if The desired channel number [1, 2].
 * @param enable Enable/disable option.
 * @return 0 in case of success, negative error code otherwise.
 */
int32_t ad9361_en_dis_rx(struct ad9361_rf_phy *phy, uint32_t rx_if, uint32_t enable)
{
     830:	defff804 	addi	sp,sp,-32
     834:	de00012e 	bgeu	sp,et,83c <ad9361_en_dis_rx+0xc>
     838:	003b68fa 	trap	3
     83c:	dfc00715 	stw	ra,28(sp)
     840:	df000615 	stw	fp,24(sp)
     844:	dc400515 	stw	r17,20(sp)
     848:	dc000415 	stw	r16,16(sp)
     84c:	df000604 	addi	fp,sp,24
     850:	e13ffb15 	stw	r4,-20(fp)
     854:	e17ffc15 	stw	r5,-16(fp)
     858:	e1bffd15 	stw	r6,-12(fp)
	if ((rx_if & enable) > 1 && AD9364_DEVICE && enable)
		return -EINVAL;

	return ad9361_spi_writef(phy->spi, REG_RX_ENABLE_FILTER_CTRL,
     85c:	e0bffb17 	ldw	r2,-20(fp)
     860:	14400117 	ldw	r17,4(r2)
     864:	e0bffc17 	ldw	r2,-16(fp)
     868:	100491ba 	slli	r2,r2,6
     86c:	14003fcc 	andi	r16,r2,255
     870:	e0bffc17 	ldw	r2,-16(fp)
     874:	100491ba 	slli	r2,r2,6
     878:	10803fcc 	andi	r2,r2,255
     87c:	1009883a 	mov	r4,r2
     880:	001c8300 	call	1c830 <find_first_bit>
     884:	1007883a 	mov	r3,r2
     888:	e0bffd17 	ldw	r2,-12(fp)
     88c:	d8800015 	stw	r2,0(sp)
     890:	8809883a 	mov	r4,r17
     894:	014000c4 	movi	r5,3
     898:	800d883a 	mov	r6,r16
     89c:	180f883a 	mov	r7,r3
     8a0:	000031c0 	call	31c <__ad9361_spi_writef>
		RX_CHANNEL_ENABLE(rx_if), enable);
}
     8a4:	e6fffe04 	addi	sp,fp,-8
     8a8:	dfc00317 	ldw	ra,12(sp)
     8ac:	df000217 	ldw	fp,8(sp)
     8b0:	dc400117 	ldw	r17,4(sp)
     8b4:	dc000017 	ldw	r16,0(sp)
     8b8:	dec00404 	addi	sp,sp,16
     8bc:	f800283a 	ret

000008c0 <ad9361_int_loopback_fix_ch_cross>:
 * @param phy The AD9361 state structure.
 * @param enable Enable.
 * @return 0 in case of success, negative error code otherwise.
 */
static int32_t ad9361_int_loopback_fix_ch_cross(struct ad9361_rf_phy *phy, bool enable)
{
     8c0:	defffc04 	addi	sp,sp,-16
     8c4:	de00012e 	bgeu	sp,et,8cc <ad9361_int_loopback_fix_ch_cross+0xc>
     8c8:	003b68fa 	trap	3
     8cc:	dfc00315 	stw	ra,12(sp)
     8d0:	df000215 	stw	fp,8(sp)
     8d4:	df000204 	addi	fp,sp,8
     8d8:	e13ffe15 	stw	r4,-8(fp)
     8dc:	2805883a 	mov	r2,r5
     8e0:	e0bfff05 	stb	r2,-4(fp)
	/* Loopback works only TX1->RX1 or RX2->RX2 */
	if (!phy->pdata->rx2tx2 && phy->pdata->rx1tx1_mode_use_rx_num !=
     8e4:	e0bffe17 	ldw	r2,-8(fp)
     8e8:	10803017 	ldw	r2,192(r2)
     8ec:	10800003 	ldbu	r2,0(r2)
     8f0:	1080005c 	xori	r2,r2,1
     8f4:	10803fcc 	andi	r2,r2,255
     8f8:	10001526 	beq	r2,zero,950 <ad9361_int_loopback_fix_ch_cross+0x90>
     8fc:	e0bffe17 	ldw	r2,-8(fp)
     900:	10803017 	ldw	r2,192(r2)
     904:	10c00a17 	ldw	r3,40(r2)
			phy->pdata->rx1tx1_mode_use_tx_num)
     908:	e0bffe17 	ldw	r2,-8(fp)
     90c:	10803017 	ldw	r2,192(r2)
     910:	10800b17 	ldw	r2,44(r2)
 * @return 0 in case of success, negative error code otherwise.
 */
static int32_t ad9361_int_loopback_fix_ch_cross(struct ad9361_rf_phy *phy, bool enable)
{
	/* Loopback works only TX1->RX1 or RX2->RX2 */
	if (!phy->pdata->rx2tx2 && phy->pdata->rx1tx1_mode_use_rx_num !=
     914:	18800e26 	beq	r3,r2,950 <ad9361_int_loopback_fix_ch_cross+0x90>
			phy->pdata->rx1tx1_mode_use_tx_num)
		return ad9361_en_dis_tx(phy, TX_1 | TX_2,
     918:	e0bfff03 	ldbu	r2,-4(fp)
     91c:	10000426 	beq	r2,zero,930 <ad9361_int_loopback_fix_ch_cross+0x70>
				enable ? phy->pdata->rx1tx1_mode_use_rx_num :
     920:	e0bffe17 	ldw	r2,-8(fp)
     924:	10803017 	ldw	r2,192(r2)
static int32_t ad9361_int_loopback_fix_ch_cross(struct ad9361_rf_phy *phy, bool enable)
{
	/* Loopback works only TX1->RX1 or RX2->RX2 */
	if (!phy->pdata->rx2tx2 && phy->pdata->rx1tx1_mode_use_rx_num !=
			phy->pdata->rx1tx1_mode_use_tx_num)
		return ad9361_en_dis_tx(phy, TX_1 | TX_2,
     928:	10800a17 	ldw	r2,40(r2)
     92c:	00000306 	br	93c <ad9361_int_loopback_fix_ch_cross+0x7c>
				enable ? phy->pdata->rx1tx1_mode_use_rx_num :
				phy->pdata->rx1tx1_mode_use_tx_num);
     930:	e0bffe17 	ldw	r2,-8(fp)
     934:	10803017 	ldw	r2,192(r2)
static int32_t ad9361_int_loopback_fix_ch_cross(struct ad9361_rf_phy *phy, bool enable)
{
	/* Loopback works only TX1->RX1 or RX2->RX2 */
	if (!phy->pdata->rx2tx2 && phy->pdata->rx1tx1_mode_use_rx_num !=
			phy->pdata->rx1tx1_mode_use_tx_num)
		return ad9361_en_dis_tx(phy, TX_1 | TX_2,
     938:	10800b17 	ldw	r2,44(r2)
     93c:	e13ffe17 	ldw	r4,-8(fp)
     940:	014000c4 	movi	r5,3
     944:	100d883a 	mov	r6,r2
     948:	00007a00 	call	7a0 <ad9361_en_dis_tx>
     94c:	00000106 	br	954 <ad9361_int_loopback_fix_ch_cross+0x94>
				enable ? phy->pdata->rx1tx1_mode_use_rx_num :
				phy->pdata->rx1tx1_mode_use_tx_num);

	return 0;
     950:	0005883a 	mov	r2,zero
}
     954:	e037883a 	mov	sp,fp
     958:	dfc00117 	ldw	ra,4(sp)
     95c:	df000017 	ldw	fp,0(sp)
     960:	dec00204 	addi	sp,sp,8
     964:	f800283a 	ret

00000968 <ad9361_bist_loopback>:
 * @param phy The AD9361 state structure.
 * @param mode BIST loopback mode.
 * @return 0 in case of success, negative error code otherwise.
 */
int32_t ad9361_bist_loopback(struct ad9361_rf_phy *phy, int32_t mode)
{
     968:	defffa04 	addi	sp,sp,-24
     96c:	de00012e 	bgeu	sp,et,974 <ad9361_bist_loopback+0xc>
     970:	003b68fa 	trap	3
     974:	dfc00515 	stw	ra,20(sp)
     978:	df000415 	stw	fp,16(sp)
     97c:	df000404 	addi	fp,sp,16
     980:	e13ffe15 	stw	r4,-8(fp)
     984:	e17fff15 	stw	r5,-4(fp)
	uint32_t sp_hd, reg;

	dev_dbg(&phy->spi->dev, "%s: mode %"PRId32, __func__, mode);
     988:	010000b4 	movhi	r4,2
     98c:	211a8a04 	addi	r4,r4,27176
     990:	014000b4 	movhi	r5,2
     994:	295e7304 	addi	r5,r5,31180
     998:	e1bfff17 	ldw	r6,-4(fp)
     99c:	001f8180 	call	1f818 <printf>
     9a0:	010000b4 	movhi	r4,2
     9a4:	211a7504 	addi	r4,r4,27092
     9a8:	001f8180 	call	1f818 <printf>

	reg = ad9361_spi_read(phy->spi, REG_OBSERVE_CONFIG);
     9ac:	e0bffe17 	ldw	r2,-8(fp)
     9b0:	10800117 	ldw	r2,4(r2)
     9b4:	1009883a 	mov	r4,r2
     9b8:	0140fd44 	movi	r5,1013
     9bc:	00001500 	call	150 <ad9361_spi_read>
     9c0:	e0bffc15 	stw	r2,-16(fp)

	phy->bist_loopback_mode = mode;
     9c4:	e0bffe17 	ldw	r2,-8(fp)
     9c8:	e0ffff17 	ldw	r3,-4(fp)
     9cc:	10c07115 	stw	r3,452(r2)

	switch (mode) {
     9d0:	e0bfff17 	ldw	r2,-4(fp)
     9d4:	10c00060 	cmpeqi	r3,r2,1
     9d8:	1800141e 	bne	r3,zero,a2c <ad9361_bist_loopback+0xc4>
     9dc:	10c000a0 	cmpeqi	r3,r2,2
     9e0:	1800361e 	bne	r3,zero,abc <ad9361_bist_loopback+0x154>
     9e4:	1000461e 	bne	r2,zero,b00 <ad9361_bist_loopback+0x198>
	case 0:
		ad9361_hdl_loopback(phy, false);
     9e8:	e13ffe17 	ldw	r4,-8(fp)
     9ec:	000b883a 	mov	r5,zero
     9f0:	0014ee40 	call	14ee4 <ad9361_hdl_loopback>
		ad9361_int_loopback_fix_ch_cross(phy, false);
     9f4:	e13ffe17 	ldw	r4,-8(fp)
     9f8:	000b883a 	mov	r5,zero
     9fc:	00008c00 	call	8c0 <ad9361_int_loopback_fix_ch_cross>
		reg &= ~(DATA_PORT_SP_HD_LOOP_TEST_OE |
     a00:	e0fffc17 	ldw	r3,-16(fp)
     a04:	00bfdf84 	movi	r2,-130
     a08:	1884703a 	and	r2,r3,r2
     a0c:	e0bffc15 	stw	r2,-16(fp)
			DATA_PORT_LOOP_TEST_ENABLE);
		return ad9361_spi_write(phy->spi, REG_OBSERVE_CONFIG, reg);
     a10:	e0bffe17 	ldw	r2,-8(fp)
     a14:	10800117 	ldw	r2,4(r2)
     a18:	1009883a 	mov	r4,r2
     a1c:	0140fd44 	movi	r5,1013
     a20:	e1bffc17 	ldw	r6,-16(fp)
     a24:	00002600 	call	260 <ad9361_spi_write>
     a28:	00003606 	br	b04 <ad9361_bist_loopback+0x19c>
	case 1:
		/* loopback (AD9361 internal) TX->RX */
		ad9361_hdl_loopback(phy, false);
     a2c:	e13ffe17 	ldw	r4,-8(fp)
     a30:	000b883a 	mov	r5,zero
     a34:	0014ee40 	call	14ee4 <ad9361_hdl_loopback>
		ad9361_int_loopback_fix_ch_cross(phy, true);
     a38:	e13ffe17 	ldw	r4,-8(fp)
     a3c:	01400044 	movi	r5,1
     a40:	00008c00 	call	8c0 <ad9361_int_loopback_fix_ch_cross>
		sp_hd = ad9361_spi_read(phy->spi, REG_PARALLEL_PORT_CONF_3);
     a44:	e0bffe17 	ldw	r2,-8(fp)
     a48:	10800117 	ldw	r2,4(r2)
     a4c:	1009883a 	mov	r4,r2
     a50:	01400484 	movi	r5,18
     a54:	00001500 	call	150 <ad9361_spi_read>
     a58:	e0bffd15 	stw	r2,-12(fp)
		if ((sp_hd & SINGLE_PORT_MODE) && (sp_hd & HALF_DUPLEX_MODE))
     a5c:	e0bffd17 	ldw	r2,-12(fp)
     a60:	1080010c 	andi	r2,r2,4
     a64:	10000726 	beq	r2,zero,a84 <ad9361_bist_loopback+0x11c>
     a68:	e0bffd17 	ldw	r2,-12(fp)
     a6c:	1080020c 	andi	r2,r2,8
     a70:	10000426 	beq	r2,zero,a84 <ad9361_bist_loopback+0x11c>
			reg |= DATA_PORT_SP_HD_LOOP_TEST_OE;
     a74:	e0bffc17 	ldw	r2,-16(fp)
     a78:	10802014 	ori	r2,r2,128
     a7c:	e0bffc15 	stw	r2,-16(fp)
     a80:	00000406 	br	a94 <ad9361_bist_loopback+0x12c>
		else
			reg &= ~DATA_PORT_SP_HD_LOOP_TEST_OE;
     a84:	e0fffc17 	ldw	r3,-16(fp)
     a88:	00bfdfc4 	movi	r2,-129
     a8c:	1884703a 	and	r2,r3,r2
     a90:	e0bffc15 	stw	r2,-16(fp)

		reg |= DATA_PORT_LOOP_TEST_ENABLE;
     a94:	e0bffc17 	ldw	r2,-16(fp)
     a98:	10800054 	ori	r2,r2,1
     a9c:	e0bffc15 	stw	r2,-16(fp)

		return ad9361_spi_write(phy->spi, REG_OBSERVE_CONFIG, reg);
     aa0:	e0bffe17 	ldw	r2,-8(fp)
     aa4:	10800117 	ldw	r2,4(r2)
     aa8:	1009883a 	mov	r4,r2
     aac:	0140fd44 	movi	r5,1013
     ab0:	e1bffc17 	ldw	r6,-16(fp)
     ab4:	00002600 	call	260 <ad9361_spi_write>
     ab8:	00001206 	br	b04 <ad9361_bist_loopback+0x19c>
	case 2:
		/* loopback (FPGA internal) RX->TX */
		ad9361_hdl_loopback(phy, true);
     abc:	e13ffe17 	ldw	r4,-8(fp)
     ac0:	01400044 	movi	r5,1
     ac4:	0014ee40 	call	14ee4 <ad9361_hdl_loopback>
		ad9361_int_loopback_fix_ch_cross(phy, false);
     ac8:	e13ffe17 	ldw	r4,-8(fp)
     acc:	000b883a 	mov	r5,zero
     ad0:	00008c00 	call	8c0 <ad9361_int_loopback_fix_ch_cross>
		reg &= ~(DATA_PORT_SP_HD_LOOP_TEST_OE |
     ad4:	e0fffc17 	ldw	r3,-16(fp)
     ad8:	00bfdf84 	movi	r2,-130
     adc:	1884703a 	and	r2,r3,r2
     ae0:	e0bffc15 	stw	r2,-16(fp)
			DATA_PORT_LOOP_TEST_ENABLE);
		return ad9361_spi_write(phy->spi, REG_OBSERVE_CONFIG, reg);
     ae4:	e0bffe17 	ldw	r2,-8(fp)
     ae8:	10800117 	ldw	r2,4(r2)
     aec:	1009883a 	mov	r4,r2
     af0:	0140fd44 	movi	r5,1013
     af4:	e1bffc17 	ldw	r6,-16(fp)
     af8:	00002600 	call	260 <ad9361_spi_write>
     afc:	00000106 	br	b04 <ad9361_bist_loopback+0x19c>
	default:
		return -EINVAL;
     b00:	00bffa84 	movi	r2,-22
	}
}
     b04:	e037883a 	mov	sp,fp
     b08:	dfc00117 	ldw	ra,4(sp)
     b0c:	df000017 	ldw	fp,0(sp)
     b10:	dec00204 	addi	sp,sp,8
     b14:	f800283a 	ret

00000b18 <ad9361_get_bist_loopback>:
 * @param phy The AD9361 state structure.
 * @param mode BIST loopback mode.
 * @return 0 in case of success, negative error code otherwise.
 */
void ad9361_get_bist_loopback(struct ad9361_rf_phy *phy, int32_t *mode)
{
     b18:	defffd04 	addi	sp,sp,-12
     b1c:	de00012e 	bgeu	sp,et,b24 <ad9361_get_bist_loopback+0xc>
     b20:	003b68fa 	trap	3
     b24:	df000215 	stw	fp,8(sp)
     b28:	df000204 	addi	fp,sp,8
     b2c:	e13ffe15 	stw	r4,-8(fp)
     b30:	e17fff15 	stw	r5,-4(fp)
	*mode = phy->bist_loopback_mode;
     b34:	e0bffe17 	ldw	r2,-8(fp)
     b38:	10c07117 	ldw	r3,452(r2)
     b3c:	e0bfff17 	ldw	r2,-4(fp)
     b40:	10c00015 	stw	r3,0(r2)
}
     b44:	e037883a 	mov	sp,fp
     b48:	df000017 	ldw	fp,0(sp)
     b4c:	dec00104 	addi	sp,sp,4
     b50:	f800283a 	ret

00000b54 <ad9361_bist_prbs>:
 * @param phy The AD9361 state structure.
 * @param mode Bist mode.
 * @return 0 in case of success, negative error code otherwise.
 */
int32_t ad9361_bist_prbs(struct ad9361_rf_phy *phy, enum ad9361_bist_mode mode)
{
     b54:	defffb04 	addi	sp,sp,-20
     b58:	de00012e 	bgeu	sp,et,b60 <ad9361_bist_prbs+0xc>
     b5c:	003b68fa 	trap	3
     b60:	dfc00415 	stw	ra,16(sp)
     b64:	df000315 	stw	fp,12(sp)
     b68:	df000304 	addi	fp,sp,12
     b6c:	e13ffe15 	stw	r4,-8(fp)
     b70:	e17fff15 	stw	r5,-4(fp)
	uint32_t reg = 0;
     b74:	e03ffd15 	stw	zero,-12(fp)

	dev_dbg(&phy->spi->dev, "%s: mode %d", __func__, mode);
     b78:	010000b4 	movhi	r4,2
     b7c:	211a8e04 	addi	r4,r4,27192
     b80:	014000b4 	movhi	r5,2
     b84:	295e7904 	addi	r5,r5,31204
     b88:	e1bfff17 	ldw	r6,-4(fp)
     b8c:	001f8180 	call	1f818 <printf>
     b90:	010000b4 	movhi	r4,2
     b94:	211a7504 	addi	r4,r4,27092
     b98:	001f8180 	call	1f818 <printf>

	phy->bist_prbs_mode = mode;
     b9c:	e0bffe17 	ldw	r2,-8(fp)
     ba0:	e0ffff17 	ldw	r3,-4(fp)
     ba4:	10c07215 	stw	r3,456(r2)

	switch (mode) {
     ba8:	e0bfff17 	ldw	r2,-4(fp)
     bac:	10c00060 	cmpeqi	r3,r2,1
     bb0:	1800061e 	bne	r3,zero,bcc <ad9361_bist_prbs+0x78>
     bb4:	0080032e 	bgeu	zero,r2,bc4 <ad9361_bist_prbs+0x70>
     bb8:	108000a0 	cmpeqi	r2,r2,2
     bbc:	1000061e 	bne	r2,zero,bd8 <ad9361_bist_prbs+0x84>
     bc0:	00000806 	br	be4 <ad9361_bist_prbs+0x90>
	case BIST_DISABLE:
		reg = 0;
     bc4:	e03ffd15 	stw	zero,-12(fp)
		break;
     bc8:	00000606 	br	be4 <ad9361_bist_prbs+0x90>
	case BIST_INJ_TX:
		reg = BIST_CTRL_POINT(0) | BIST_ENABLE;
     bcc:	00800044 	movi	r2,1
     bd0:	e0bffd15 	stw	r2,-12(fp)
		break;
     bd4:	00000306 	br	be4 <ad9361_bist_prbs+0x90>
	case BIST_INJ_RX:
		reg = BIST_CTRL_POINT(2) | BIST_ENABLE;
     bd8:	00800244 	movi	r2,9
     bdc:	e0bffd15 	stw	r2,-12(fp)
		break;
     be0:	0001883a 	nop
	};

	return ad9361_spi_write(phy->spi, REG_BIST_CONFIG, reg);
     be4:	e0bffe17 	ldw	r2,-8(fp)
     be8:	10800117 	ldw	r2,4(r2)
     bec:	1009883a 	mov	r4,r2
     bf0:	0140fd04 	movi	r5,1012
     bf4:	e1bffd17 	ldw	r6,-12(fp)
     bf8:	00002600 	call	260 <ad9361_spi_write>
}
     bfc:	e037883a 	mov	sp,fp
     c00:	dfc00117 	ldw	ra,4(sp)
     c04:	df000017 	ldw	fp,0(sp)
     c08:	dec00204 	addi	sp,sp,8
     c0c:	f800283a 	ret

00000c10 <ad9361_get_bist_prbs>:
 * @param phy The AD9361 state structure.
 * @param mode Bist mode.
 * @return 0 in case of success, negative error code otherwise.
 */
void ad9361_get_bist_prbs(struct ad9361_rf_phy *phy, enum ad9361_bist_mode *mode)
{
     c10:	defffd04 	addi	sp,sp,-12
     c14:	de00012e 	bgeu	sp,et,c1c <ad9361_get_bist_prbs+0xc>
     c18:	003b68fa 	trap	3
     c1c:	df000215 	stw	fp,8(sp)
     c20:	df000204 	addi	fp,sp,8
     c24:	e13ffe15 	stw	r4,-8(fp)
     c28:	e17fff15 	stw	r5,-4(fp)
	*mode = phy->bist_prbs_mode;
     c2c:	e0bffe17 	ldw	r2,-8(fp)
     c30:	10c07217 	ldw	r3,456(r2)
     c34:	e0bfff17 	ldw	r2,-4(fp)
     c38:	10c00015 	stw	r3,0(r2)
}
     c3c:	e037883a 	mov	sp,fp
     c40:	df000017 	ldw	fp,0(sp)
     c44:	dec00104 	addi	sp,sp,4
     c48:	f800283a 	ret

00000c4c <ad9361_bist_tone>:
 * @return 0 in case of success, negative error code otherwise.
 */
int32_t ad9361_bist_tone(struct ad9361_rf_phy *phy,
						 enum ad9361_bist_mode mode, uint32_t freq_Hz,
						 uint32_t level_dB, uint32_t mask)
{
     c4c:	defff604 	addi	sp,sp,-40
     c50:	de00012e 	bgeu	sp,et,c58 <ad9361_bist_tone+0xc>
     c54:	003b68fa 	trap	3
     c58:	dfc00915 	stw	ra,36(sp)
     c5c:	df000815 	stw	fp,32(sp)
     c60:	df000804 	addi	fp,sp,32
     c64:	e13ffc15 	stw	r4,-16(fp)
     c68:	e17ffd15 	stw	r5,-12(fp)
     c6c:	e1bffe15 	stw	r6,-8(fp)
     c70:	e1ffff15 	stw	r7,-4(fp)
	uint32_t clk = 0;
     c74:	e03ff815 	stw	zero,-32(fp)
	uint32_t reg = 0, reg1, reg_mask;
     c78:	e03ff915 	stw	zero,-28(fp)

	dev_dbg(&phy->spi->dev, "%s: mode %d", __func__, mode);
     c7c:	010000b4 	movhi	r4,2
     c80:	211a8e04 	addi	r4,r4,27192
     c84:	014000b4 	movhi	r5,2
     c88:	295e7e04 	addi	r5,r5,31224
     c8c:	e1bffd17 	ldw	r6,-12(fp)
     c90:	001f8180 	call	1f818 <printf>
     c94:	010000b4 	movhi	r4,2
     c98:	211a7504 	addi	r4,r4,27092
     c9c:	001f8180 	call	1f818 <printf>

	phy->bist_tone_mode = mode;
     ca0:	e0bffc17 	ldw	r2,-16(fp)
     ca4:	e0fffd17 	ldw	r3,-12(fp)
     ca8:	10c07315 	stw	r3,460(r2)
	phy->bist_tone_freq_Hz = freq_Hz;
     cac:	e0bffc17 	ldw	r2,-16(fp)
     cb0:	e0fffe17 	ldw	r3,-8(fp)
     cb4:	10c07415 	stw	r3,464(r2)
	phy->bist_tone_level_dB = level_dB;
     cb8:	e0bffc17 	ldw	r2,-16(fp)
     cbc:	e0ffff17 	ldw	r3,-4(fp)
     cc0:	10c07515 	stw	r3,468(r2)
	phy->bist_tone_mask = mask;
     cc4:	e0bffc17 	ldw	r2,-16(fp)
     cc8:	e0c00217 	ldw	r3,8(fp)
     ccc:	10c07615 	stw	r3,472(r2)

	switch (mode) {
     cd0:	e0bffd17 	ldw	r2,-12(fp)
     cd4:	10c00060 	cmpeqi	r3,r2,1
     cd8:	1800061e 	bne	r3,zero,cf4 <ad9361_bist_tone+0xa8>
     cdc:	0080032e 	bgeu	zero,r2,cec <ad9361_bist_tone+0xa0>
     ce0:	108000a0 	cmpeqi	r2,r2,2
     ce4:	10000c1e 	bne	r2,zero,d18 <ad9361_bist_tone+0xcc>
     ce8:	00001406 	br	d3c <ad9361_bist_tone+0xf0>
	case BIST_DISABLE:
		reg = 0;
     cec:	e03ff915 	stw	zero,-28(fp)
		break;
     cf0:	00001206 	br	d3c <ad9361_bist_tone+0xf0>
	case BIST_INJ_TX:
		clk = clk_get_rate(phy, phy->ref_clk_scale[TX_SAMPL_CLK]);
     cf4:	e0bffc17 	ldw	r2,-16(fp)
     cf8:	10802417 	ldw	r2,144(r2)
     cfc:	e13ffc17 	ldw	r4,-16(fp)
     d00:	100b883a 	mov	r5,r2
     d04:	001bc900 	call	1bc90 <clk_get_rate>
     d08:	e0bff815 	stw	r2,-32(fp)
		reg = BIST_CTRL_POINT(0) | BIST_ENABLE;
     d0c:	00800044 	movi	r2,1
     d10:	e0bff915 	stw	r2,-28(fp)
		break;
     d14:	00000906 	br	d3c <ad9361_bist_tone+0xf0>
	case BIST_INJ_RX:
		clk = clk_get_rate(phy, phy->ref_clk_scale[RX_SAMPL_CLK]);
     d18:	e0bffc17 	ldw	r2,-16(fp)
     d1c:	10801f17 	ldw	r2,124(r2)
     d20:	e13ffc17 	ldw	r4,-16(fp)
     d24:	100b883a 	mov	r5,r2
     d28:	001bc900 	call	1bc90 <clk_get_rate>
     d2c:	e0bff815 	stw	r2,-32(fp)
		reg = BIST_CTRL_POINT(2) | BIST_ENABLE;
     d30:	00800244 	movi	r2,9
     d34:	e0bff915 	stw	r2,-28(fp)
		break;
     d38:	0001883a 	nop
	};

	reg |= TONE_PRBS;
     d3c:	e0bff917 	ldw	r2,-28(fp)
     d40:	10800094 	ori	r2,r2,2
     d44:	e0bff915 	stw	r2,-28(fp)
	reg |= TONE_LEVEL(level_dB / 6);
     d48:	e0bfff17 	ldw	r2,-4(fp)
     d4c:	1009883a 	mov	r4,r2
     d50:	01400184 	movi	r5,6
     d54:	001d7a40 	call	1d7a4 <__udivsi3>
     d58:	108000cc 	andi	r2,r2,3
     d5c:	1004913a 	slli	r2,r2,4
     d60:	e0fff917 	ldw	r3,-28(fp)
     d64:	1884b03a 	or	r2,r3,r2
     d68:	e0bff915 	stw	r2,-28(fp)

	if (freq_Hz < 4) {
     d6c:	e0bffe17 	ldw	r2,-8(fp)
     d70:	10800128 	cmpgeui	r2,r2,4
     d74:	1000071e 	bne	r2,zero,d94 <ad9361_bist_tone+0x148>
		reg |= TONE_FREQ(freq_Hz);
     d78:	e0bffe17 	ldw	r2,-8(fp)
     d7c:	100491ba 	slli	r2,r2,6
     d80:	10803fcc 	andi	r2,r2,255
     d84:	e0fff917 	ldw	r3,-28(fp)
     d88:	1884b03a 	or	r2,r3,r2
     d8c:	e0bff915 	stw	r2,-28(fp)
     d90:	00001006 	br	dd4 <ad9361_bist_tone+0x188>
	}
	else {
		if (clk)
     d94:	e0bff817 	ldw	r2,-32(fp)
     d98:	10000e26 	beq	r2,zero,dd4 <ad9361_bist_tone+0x188>
			reg |= TONE_FREQ(DIV_ROUND_CLOSEST(freq_Hz * 32, clk) - 1);
     d9c:	e0bffe17 	ldw	r2,-8(fp)
     da0:	1006917a 	slli	r3,r2,5
     da4:	e0bff817 	ldw	r2,-32(fp)
     da8:	1004d07a 	srli	r2,r2,1
     dac:	1885883a 	add	r2,r3,r2
     db0:	1009883a 	mov	r4,r2
     db4:	e17ff817 	ldw	r5,-32(fp)
     db8:	001d7a40 	call	1d7a4 <__udivsi3>
     dbc:	10bfffc4 	addi	r2,r2,-1
     dc0:	100491ba 	slli	r2,r2,6
     dc4:	10803fcc 	andi	r2,r2,255
     dc8:	e0fff917 	ldw	r3,-28(fp)
     dcc:	1884b03a 	or	r2,r3,r2
     dd0:	e0bff915 	stw	r2,-28(fp)
	}

	reg_mask = BIST_MASK_CHANNEL_1_I_DATA | BIST_MASK_CHANNEL_1_Q_DATA |
     dd4:	00800f04 	movi	r2,60
     dd8:	e0bffa15 	stw	r2,-24(fp)
		BIST_MASK_CHANNEL_2_I_DATA | BIST_MASK_CHANNEL_2_Q_DATA;

	reg1 = ((mask << 2) & reg_mask);
     ddc:	e0800217 	ldw	r2,8(fp)
     de0:	1085883a 	add	r2,r2,r2
     de4:	1085883a 	add	r2,r2,r2
     de8:	1007883a 	mov	r3,r2
     dec:	e0bffa17 	ldw	r2,-24(fp)
     df0:	1884703a 	and	r2,r3,r2
     df4:	e0bffb15 	stw	r2,-20(fp)
	ad9361_spi_write(phy->spi, REG_BIST_AND_DATA_PORT_TEST_CONFIG, reg1);
     df8:	e0bffc17 	ldw	r2,-16(fp)
     dfc:	10800117 	ldw	r2,4(r2)
     e00:	1009883a 	mov	r4,r2
     e04:	0140fd84 	movi	r5,1014
     e08:	e1bffb17 	ldw	r6,-20(fp)
     e0c:	00002600 	call	260 <ad9361_spi_write>

	return ad9361_spi_write(phy->spi, REG_BIST_CONFIG, reg);
     e10:	e0bffc17 	ldw	r2,-16(fp)
     e14:	10800117 	ldw	r2,4(r2)
     e18:	1009883a 	mov	r4,r2
     e1c:	0140fd04 	movi	r5,1012
     e20:	e1bff917 	ldw	r6,-28(fp)
     e24:	00002600 	call	260 <ad9361_spi_write>
}
     e28:	e037883a 	mov	sp,fp
     e2c:	dfc00117 	ldw	ra,4(sp)
     e30:	df000017 	ldw	fp,0(sp)
     e34:	dec00204 	addi	sp,sp,8
     e38:	f800283a 	ret

00000e3c <ad9361_get_bist_tone>:
 * @return 0 in case of success, negative error code otherwise.
 */
void ad9361_get_bist_tone(struct ad9361_rf_phy *phy,
						 enum ad9361_bist_mode *mode, uint32_t *freq_Hz,
						 uint32_t *level_dB, uint32_t *mask)
{
     e3c:	defffb04 	addi	sp,sp,-20
     e40:	de00012e 	bgeu	sp,et,e48 <ad9361_get_bist_tone+0xc>
     e44:	003b68fa 	trap	3
     e48:	df000415 	stw	fp,16(sp)
     e4c:	df000404 	addi	fp,sp,16
     e50:	e13ffc15 	stw	r4,-16(fp)
     e54:	e17ffd15 	stw	r5,-12(fp)
     e58:	e1bffe15 	stw	r6,-8(fp)
     e5c:	e1ffff15 	stw	r7,-4(fp)
	*mode = phy->bist_tone_mode;
     e60:	e0bffc17 	ldw	r2,-16(fp)
     e64:	10c07317 	ldw	r3,460(r2)
     e68:	e0bffd17 	ldw	r2,-12(fp)
     e6c:	10c00015 	stw	r3,0(r2)
	*freq_Hz = phy->bist_tone_freq_Hz;
     e70:	e0bffc17 	ldw	r2,-16(fp)
     e74:	10c07417 	ldw	r3,464(r2)
     e78:	e0bffe17 	ldw	r2,-8(fp)
     e7c:	10c00015 	stw	r3,0(r2)
	*level_dB = phy->bist_tone_level_dB;
     e80:	e0bffc17 	ldw	r2,-16(fp)
     e84:	10c07517 	ldw	r3,468(r2)
     e88:	e0bfff17 	ldw	r2,-4(fp)
     e8c:	10c00015 	stw	r3,0(r2)
	*mask = phy->bist_tone_mask;
     e90:	e0bffc17 	ldw	r2,-16(fp)
     e94:	10c07617 	ldw	r3,472(r2)
     e98:	e0800117 	ldw	r2,4(fp)
     e9c:	10c00015 	stw	r3,0(r2)
}
     ea0:	e037883a 	mov	sp,fp
     ea4:	df000017 	ldw	fp,0(sp)
     ea8:	dec00104 	addi	sp,sp,4
     eac:	f800283a 	ret

00000eb0 <ad9361_check_cal_done>:
 * @param done_state The done state [0,1].
 * @return 0 in case of success, negative error code otherwise.
 */
static int32_t ad9361_check_cal_done(struct ad9361_rf_phy *phy, uint32_t reg,
	uint32_t mask, bool done_state)
{
     eb0:	defff704 	addi	sp,sp,-36
     eb4:	de00012e 	bgeu	sp,et,ebc <ad9361_check_cal_done+0xc>
     eb8:	003b68fa 	trap	3
     ebc:	dfc00815 	stw	ra,32(sp)
     ec0:	df000715 	stw	fp,28(sp)
     ec4:	dc000615 	stw	r16,24(sp)
     ec8:	df000704 	addi	fp,sp,28
     ecc:	e13ffb15 	stw	r4,-20(fp)
     ed0:	e17ffc15 	stw	r5,-16(fp)
     ed4:	e1bffd15 	stw	r6,-12(fp)
     ed8:	3805883a 	mov	r2,r7
     edc:	e0bffe05 	stb	r2,-8(fp)
	uint32_t timeout = 5000; /* RFDC_CAL can take long */
     ee0:	0084e204 	movi	r2,5000
     ee4:	e0bff915 	stw	r2,-28(fp)
	uint32_t state;

	do {
		state = ad9361_spi_readf(phy->spi, reg, mask);
     ee8:	e0bffb17 	ldw	r2,-20(fp)
     eec:	14000117 	ldw	r16,4(r2)
     ef0:	e13ffd17 	ldw	r4,-12(fp)
     ef4:	001c8300 	call	1c830 <find_first_bit>
     ef8:	8009883a 	mov	r4,r16
     efc:	e17ffc17 	ldw	r5,-16(fp)
     f00:	e1bffd17 	ldw	r6,-12(fp)
     f04:	100f883a 	mov	r7,r2
     f08:	00001b80 	call	1b8 <__ad9361_spi_readf>
     f0c:	e0bffa15 	stw	r2,-24(fp)
		if (state == done_state)
     f10:	e0fffe03 	ldbu	r3,-8(fp)
     f14:	e0bffa17 	ldw	r2,-24(fp)
     f18:	1880021e 	bne	r3,r2,f24 <ad9361_check_cal_done+0x74>
			return 0;
     f1c:	0005883a 	mov	r2,zero
     f20:	00001506 	br	f78 <ad9361_check_cal_done+0xc8>

		if (reg == REG_CALIBRATION_CTRL)
     f24:	e0bffc17 	ldw	r2,-16(fp)
     f28:	10800598 	cmpnei	r2,r2,22
     f2c:	1000031e 	bne	r2,zero,f3c <ad9361_check_cal_done+0x8c>
			udelay(1200);
     f30:	01012c04 	movi	r4,1200
     f34:	001b8a40 	call	1b8a4 <udelay>
     f38:	00000206 	br	f44 <ad9361_check_cal_done+0x94>
		else
			udelay(120);
     f3c:	01001e04 	movi	r4,120
     f40:	001b8a40 	call	1b8a4 <udelay>
	} while (timeout--);
     f44:	e0bff917 	ldw	r2,-28(fp)
     f48:	10ffffc4 	addi	r3,r2,-1
     f4c:	e0fff915 	stw	r3,-28(fp)
     f50:	103fe51e 	bne	r2,zero,ee8 <_gp+0xfffcedc8>

	dev_err(&phy->spi->dev, "Calibration TIMEOUT (0x%"PRIX32", 0x%"PRIX32")", reg, mask);
     f54:	010000b4 	movhi	r4,2
     f58:	211a9104 	addi	r4,r4,27204
     f5c:	e17ffc17 	ldw	r5,-16(fp)
     f60:	e1bffd17 	ldw	r6,-12(fp)
     f64:	001f8180 	call	1f818 <printf>
     f68:	010000b4 	movhi	r4,2
     f6c:	211a7504 	addi	r4,r4,27092
     f70:	001f8180 	call	1f818 <printf>

	return -ETIMEDOUT;
     f74:	00bfe484 	movi	r2,-110
}
     f78:	e6ffff04 	addi	sp,fp,-4
     f7c:	dfc00217 	ldw	ra,8(sp)
     f80:	df000117 	ldw	fp,4(sp)
     f84:	dc000017 	ldw	r16,0(sp)
     f88:	dec00304 	addi	sp,sp,12
     f8c:	f800283a 	ret

00000f90 <ad9361_run_calibration>:
 *             RX_QUAD_CAL, TX_QUAD_CAL, RX_GAIN_STEP_CAL, TXMON_CAL,
 *             RFDC_CAL, BBDC_CAL].
 * @return 0 in case of success, negative error code otherwise.
 */
static int32_t ad9361_run_calibration(struct ad9361_rf_phy *phy, uint32_t mask)
{
     f90:	defffb04 	addi	sp,sp,-20
     f94:	de00012e 	bgeu	sp,et,f9c <ad9361_run_calibration+0xc>
     f98:	003b68fa 	trap	3
     f9c:	dfc00415 	stw	ra,16(sp)
     fa0:	df000315 	stw	fp,12(sp)
     fa4:	df000304 	addi	fp,sp,12
     fa8:	e13ffe15 	stw	r4,-8(fp)
     fac:	e17fff15 	stw	r5,-4(fp)
	int32_t ret = ad9361_spi_write(phy->spi, REG_CALIBRATION_CTRL, mask);
     fb0:	e0bffe17 	ldw	r2,-8(fp)
     fb4:	10800117 	ldw	r2,4(r2)
     fb8:	1009883a 	mov	r4,r2
     fbc:	01400584 	movi	r5,22
     fc0:	e1bfff17 	ldw	r6,-4(fp)
     fc4:	00002600 	call	260 <ad9361_spi_write>
     fc8:	e0bffd15 	stw	r2,-12(fp)
	if (ret < 0)
     fcc:	e0bffd17 	ldw	r2,-12(fp)
     fd0:	1000020e 	bge	r2,zero,fdc <ad9361_run_calibration+0x4c>
		return ret;
     fd4:	e0bffd17 	ldw	r2,-12(fp)
     fd8:	00000e06 	br	1014 <ad9361_run_calibration+0x84>

	dev_dbg(&phy->spi->dev, "%s: CAL Mask 0x%"PRIx32, __func__, mask);
     fdc:	010000b4 	movhi	r4,2
     fe0:	211a9a04 	addi	r4,r4,27240
     fe4:	014000b4 	movhi	r5,2
     fe8:	295e8304 	addi	r5,r5,31244
     fec:	e1bfff17 	ldw	r6,-4(fp)
     ff0:	001f8180 	call	1f818 <printf>
     ff4:	010000b4 	movhi	r4,2
     ff8:	211a7504 	addi	r4,r4,27092
     ffc:	001f8180 	call	1f818 <printf>

	return ad9361_check_cal_done(phy, REG_CALIBRATION_CTRL, mask, 0);
    1000:	e13ffe17 	ldw	r4,-8(fp)
    1004:	01400584 	movi	r5,22
    1008:	e1bfff17 	ldw	r6,-4(fp)
    100c:	000f883a 	mov	r7,zero
    1010:	0000eb00 	call	eb0 <ad9361_check_cal_done>
}
    1014:	e037883a 	mov	sp,fp
    1018:	dfc00117 	ldw	ra,4(sp)
    101c:	df000017 	ldw	fp,0(sp)
    1020:	dec00204 	addi	sp,sp,8
    1024:	f800283a 	ret

00001028 <ad9361_gt_tableindex>:
 * Choose the right RX gain table index for the selected frequency.
 * @param freq The frequency value [Hz].
 * @return The index to the RX gain table.
 */
static enum rx_gain_table_name ad9361_gt_tableindex(uint64_t freq)
{
    1028:	defffd04 	addi	sp,sp,-12
    102c:	de00012e 	bgeu	sp,et,1034 <ad9361_gt_tableindex+0xc>
    1030:	003b68fa 	trap	3
    1034:	df000215 	stw	fp,8(sp)
    1038:	df000204 	addi	fp,sp,8
    103c:	e13ffe15 	stw	r4,-8(fp)
    1040:	e17fff15 	stw	r5,-4(fp)
	if (freq <= 1300000000ULL)
    1044:	e0bfff17 	ldw	r2,-4(fp)
    1048:	1000081e 	bne	r2,zero,106c <ad9361_gt_tableindex+0x44>
    104c:	e0bfff17 	ldw	r2,-4(fp)
    1050:	1000041e 	bne	r2,zero,1064 <ad9361_gt_tableindex+0x3c>
    1054:	e0fffe17 	ldw	r3,-8(fp)
    1058:	00935f34 	movhi	r2,19836
    105c:	109b4004 	addi	r2,r2,27904
    1060:	10c00236 	bltu	r2,r3,106c <ad9361_gt_tableindex+0x44>
		return TBL_200_1300_MHZ;
    1064:	0005883a 	mov	r2,zero
    1068:	00000b06 	br	1098 <ad9361_gt_tableindex+0x70>

	if (freq <= 4000000000ULL)
    106c:	e0bfff17 	ldw	r2,-4(fp)
    1070:	1000081e 	bne	r2,zero,1094 <ad9361_gt_tableindex+0x6c>
    1074:	e0bfff17 	ldw	r2,-4(fp)
    1078:	1000041e 	bne	r2,zero,108c <ad9361_gt_tableindex+0x64>
    107c:	e0fffe17 	ldw	r3,-8(fp)
    1080:	00bb9af4 	movhi	r2,61035
    1084:	108a0004 	addi	r2,r2,10240
    1088:	10c00236 	bltu	r2,r3,1094 <ad9361_gt_tableindex+0x6c>
		return TBL_1300_4000_MHZ;
    108c:	00800044 	movi	r2,1
    1090:	00000106 	br	1098 <ad9361_gt_tableindex+0x70>

	return TBL_4000_6000_MHZ;
    1094:	00800084 	movi	r2,2
}
    1098:	e037883a 	mov	sp,fp
    109c:	df000017 	ldw	fp,0(sp)
    10a0:	dec00104 	addi	sp,sp,4
    10a4:	f800283a 	ret

000010a8 <ad9361_to_clk>:
 * Note: PLL operates between 47 .. 6000 MHz which is > 2^32.
 * @param freq The frequency value [Hz].
 * @return The shifted frequency value.
 */
uint32_t ad9361_to_clk(uint64_t freq)
{
    10a8:	defffd04 	addi	sp,sp,-12
    10ac:	de00012e 	bgeu	sp,et,10b4 <ad9361_to_clk+0xc>
    10b0:	003b68fa 	trap	3
    10b4:	df000215 	stw	fp,8(sp)
    10b8:	df000204 	addi	fp,sp,8
    10bc:	e13ffe15 	stw	r4,-8(fp)
    10c0:	e17fff15 	stw	r5,-4(fp)
	return (uint32_t)(freq >> 1);
    10c4:	e13fff17 	ldw	r4,-4(fp)
    10c8:	200897fa 	slli	r4,r4,31
    10cc:	e17ffe17 	ldw	r5,-8(fp)
    10d0:	2804d07a 	srli	r2,r5,1
    10d4:	2084b03a 	or	r2,r4,r2
    10d8:	e13fff17 	ldw	r4,-4(fp)
    10dc:	2006d07a 	srli	r3,r4,1
}
    10e0:	e037883a 	mov	sp,fp
    10e4:	df000017 	ldw	fp,0(sp)
    10e8:	dec00104 	addi	sp,sp,4
    10ec:	f800283a 	ret

000010f0 <ad9361_from_clk>:
 * Note: PLL operates between 47 .. 6000 MHz which is > 2^32.
 * @param freq The frequency value [Hz].
 * @return The shifted frequency value.
 */
uint64_t ad9361_from_clk(uint32_t freq)
{
    10f0:	defffe04 	addi	sp,sp,-8
    10f4:	de00012e 	bgeu	sp,et,10fc <ad9361_from_clk+0xc>
    10f8:	003b68fa 	trap	3
    10fc:	df000115 	stw	fp,4(sp)
    1100:	df000104 	addi	fp,sp,4
    1104:	e13fff15 	stw	r4,-4(fp)
	return ((uint64_t)freq << 1);
    1108:	e0bfff17 	ldw	r2,-4(fp)
    110c:	100b883a 	mov	r5,r2
    1110:	000d883a 	mov	r6,zero
    1114:	2945883a 	add	r2,r5,r5
    1118:	1149803a 	cmpltu	r4,r2,r5
    111c:	3187883a 	add	r3,r6,r6
    1120:	20c9883a 	add	r4,r4,r3
    1124:	2007883a 	mov	r3,r4
    1128:	100b883a 	mov	r5,r2
    112c:	180d883a 	mov	r6,r3
    1130:	2807883a 	mov	r3,r5
    1134:	3009883a 	mov	r4,r6
}
    1138:	1805883a 	mov	r2,r3
    113c:	2007883a 	mov	r3,r4
    1140:	e037883a 	mov	sp,fp
    1144:	df000017 	ldw	fp,0(sp)
    1148:	dec00104 	addi	sp,sp,4
    114c:	f800283a 	ret

00001150 <ad9361_load_gt>:
 * @param freq The frequency value [Hz].
 * @param dest The destination [GT_RX1, GT_RX2].
 * @return 0 in case of success, negative error code otherwise.
 */
static int32_t ad9361_load_gt(struct ad9361_rf_phy *phy, uint64_t freq, uint32_t dest)
{
    1150:	defff304 	addi	sp,sp,-52
    1154:	de00012e 	bgeu	sp,et,115c <ad9361_load_gt+0xc>
    1158:	003b68fa 	trap	3
    115c:	dfc00c15 	stw	ra,48(sp)
    1160:	df000b15 	stw	fp,44(sp)
    1164:	df000b04 	addi	fp,sp,44
    1168:	e13ffc15 	stw	r4,-16(fp)
    116c:	e17ffd15 	stw	r5,-12(fp)
    1170:	e1bffe15 	stw	r6,-8(fp)
    1174:	e1ffff15 	stw	r7,-4(fp)
	struct spi_device *spi = phy->spi;
    1178:	e0bffc17 	ldw	r2,-16(fp)
    117c:	10800117 	ldw	r2,4(r2)
    1180:	e0bff915 	stw	r2,-28(fp)
	const uint8_t(*tab)[3];
	enum rx_gain_table_name band;
	uint32_t index_max, i, lna;

	dev_dbg(&phy->spi->dev, "%s: frequency %"PRIu64, __func__, freq);
    1184:	010000b4 	movhi	r4,2
    1188:	211a9f04 	addi	r4,r4,27260
    118c:	014000b4 	movhi	r5,2
    1190:	295e8904 	addi	r5,r5,31268
    1194:	e1bffd17 	ldw	r6,-12(fp)
    1198:	e1fffe17 	ldw	r7,-8(fp)
    119c:	001f8180 	call	1f818 <printf>
    11a0:	010000b4 	movhi	r4,2
    11a4:	211a7504 	addi	r4,r4,27092
    11a8:	001f8180 	call	1f818 <printf>

	band = ad9361_gt_tableindex(freq);
    11ac:	e13ffd17 	ldw	r4,-12(fp)
    11b0:	e17ffe17 	ldw	r5,-8(fp)
    11b4:	00010280 	call	1028 <ad9361_gt_tableindex>
    11b8:	e0bffa15 	stw	r2,-24(fp)

	dev_dbg(&phy->spi->dev, "%s: frequency %"PRIu64" (band %d)",
    11bc:	e0bffa17 	ldw	r2,-24(fp)
    11c0:	d8800015 	stw	r2,0(sp)
    11c4:	010000b4 	movhi	r4,2
    11c8:	211aa404 	addi	r4,r4,27280
    11cc:	014000b4 	movhi	r5,2
    11d0:	295e8904 	addi	r5,r5,31268
    11d4:	e1bffd17 	ldw	r6,-12(fp)
    11d8:	e1fffe17 	ldw	r7,-8(fp)
    11dc:	001f8180 	call	1f818 <printf>
    11e0:	010000b4 	movhi	r4,2
    11e4:	211a7504 	addi	r4,r4,27092
    11e8:	001f8180 	call	1f818 <printf>
		__func__, freq, band);

	/* check if table is present */
	if (phy->current_table == band)
    11ec:	e0bffc17 	ldw	r2,-16(fp)
    11f0:	10c04417 	ldw	r3,272(r2)
    11f4:	e0bffa17 	ldw	r2,-24(fp)
    11f8:	1880021e 	bne	r3,r2,1204 <ad9361_load_gt+0xb4>
		return 0;
    11fc:	0005883a 	mov	r2,zero
    1200:	00009206 	br	144c <ad9361_load_gt+0x2fc>

	ad9361_spi_writef(spi, REG_AGC_CONFIG_2,
    1204:	01000204 	movi	r4,8
    1208:	001c8300 	call	1c830 <find_first_bit>
    120c:	1007883a 	mov	r3,r2
    1210:	e0bffc17 	ldw	r2,-16(fp)
    1214:	10803017 	ldw	r2,192(r2)
    1218:	108000c3 	ldbu	r2,3(r2)
    121c:	1080005c 	xori	r2,r2,1
    1220:	10803fcc 	andi	r2,r2,255
    1224:	d8800015 	stw	r2,0(sp)
    1228:	e13ff917 	ldw	r4,-28(fp)
    122c:	01403ec4 	movi	r5,251
    1230:	01800204 	movi	r6,8
    1234:	180f883a 	mov	r7,r3
    1238:	000031c0 	call	31c <__ad9361_spi_writef>
		AGC_USE_FULL_GAIN_TABLE, !phy->pdata->split_gt);

	if (has_split_gt && phy->pdata->split_gt) {
    123c:	00800044 	movi	r2,1
    1240:	10803fcc 	andi	r2,r2,255
    1244:	10000e26 	beq	r2,zero,1280 <ad9361_load_gt+0x130>
    1248:	e0bffc17 	ldw	r2,-16(fp)
    124c:	10803017 	ldw	r2,192(r2)
    1250:	108000c3 	ldbu	r2,3(r2)
    1254:	10803fcc 	andi	r2,r2,255
    1258:	10000926 	beq	r2,zero,1280 <ad9361_load_gt+0x130>
		tab = &split_gain_table[band][0];
    125c:	e0bffa17 	ldw	r2,-24(fp)
    1260:	10c01ee4 	muli	r3,r2,123
    1264:	008000b4 	movhi	r2,2
    1268:	1099d844 	addi	r2,r2,26465
    126c:	1885883a 	add	r2,r3,r2
    1270:	e0bff615 	stw	r2,-40(fp)
		index_max = SIZE_SPLIT_TABLE;
    1274:	00800a44 	movi	r2,41
    1278:	e0bff715 	stw	r2,-36(fp)
    127c:	00000806 	br	12a0 <ad9361_load_gt+0x150>
	}
	else {
		tab = &full_gain_table[band][0];
    1280:	e0bffa17 	ldw	r2,-24(fp)
    1284:	10c039e4 	muli	r3,r2,231
    1288:	008000b4 	movhi	r2,2
    128c:	10992b04 	addi	r2,r2,25772
    1290:	1885883a 	add	r2,r3,r2
    1294:	e0bff615 	stw	r2,-40(fp)
		index_max = SIZE_FULL_TABLE;
    1298:	00801344 	movi	r2,77
    129c:	e0bff715 	stw	r2,-36(fp)
	}

	lna = phy->pdata->elna_ctrl.elna_in_gaintable_all_index_en ?
    12a0:	e0bffc17 	ldw	r2,-16(fp)
    12a4:	10803017 	ldw	r2,192(r2)
    12a8:	10804883 	ldbu	r2,290(r2)
    12ac:	10803fcc 	andi	r2,r2,255
    12b0:	10000226 	beq	r2,zero,12bc <ad9361_load_gt+0x16c>
    12b4:	00802004 	movi	r2,128
    12b8:	00000106 	br	12c0 <ad9361_load_gt+0x170>
    12bc:	0005883a 	mov	r2,zero
    12c0:	e0bffb15 	stw	r2,-20(fp)
			EXT_LNA_CTRL : 0;

	ad9361_spi_write(spi, REG_GAIN_TABLE_CONFIG, START_GAIN_TABLE_CLOCK |
		RECEIVER_SELECT(dest)); /* Start Gain Table Clock */
    12c4:	e0bfff17 	ldw	r2,-4(fp)
    12c8:	108000cc 	andi	r2,r2,3
    12cc:	100490fa 	slli	r2,r2,3
	}

	lna = phy->pdata->elna_ctrl.elna_in_gaintable_all_index_en ?
			EXT_LNA_CTRL : 0;

	ad9361_spi_write(spi, REG_GAIN_TABLE_CONFIG, START_GAIN_TABLE_CLOCK |
    12d0:	10800094 	ori	r2,r2,2
    12d4:	e13ff917 	ldw	r4,-28(fp)
    12d8:	01404dc4 	movi	r5,311
    12dc:	100d883a 	mov	r6,r2
    12e0:	00002600 	call	260 <ad9361_spi_write>
		RECEIVER_SELECT(dest)); /* Start Gain Table Clock */

	for (i = 0; i < index_max; i++) {
    12e4:	e03ff815 	stw	zero,-32(fp)
    12e8:	00003d06 	br	13e0 <ad9361_load_gt+0x290>
		ad9361_spi_write(spi, REG_GAIN_TABLE_ADDRESS, i); /* Gain Table Index */
    12ec:	e13ff917 	ldw	r4,-28(fp)
    12f0:	01404c04 	movi	r5,304
    12f4:	e1bff817 	ldw	r6,-32(fp)
    12f8:	00002600 	call	260 <ad9361_spi_write>
		ad9361_spi_write(spi, REG_GAIN_TABLE_WRITE_DATA1, tab[i][0] | lna); /* Ext LNA, Int LNA, & Mixer Gain Word */
    12fc:	e0fff817 	ldw	r3,-32(fp)
    1300:	1805883a 	mov	r2,r3
    1304:	1085883a 	add	r2,r2,r2
    1308:	10c5883a 	add	r2,r2,r3
    130c:	e0fff617 	ldw	r3,-40(fp)
    1310:	1885883a 	add	r2,r3,r2
    1314:	10800003 	ldbu	r2,0(r2)
    1318:	10c03fcc 	andi	r3,r2,255
    131c:	e0bffb17 	ldw	r2,-20(fp)
    1320:	1884b03a 	or	r2,r3,r2
    1324:	e13ff917 	ldw	r4,-28(fp)
    1328:	01404c44 	movi	r5,305
    132c:	100d883a 	mov	r6,r2
    1330:	00002600 	call	260 <ad9361_spi_write>
		ad9361_spi_write(spi, REG_GAIN_TABLE_WRITE_DATA2, tab[i][1]); /* TIA & LPF Word */
    1334:	e0fff817 	ldw	r3,-32(fp)
    1338:	1805883a 	mov	r2,r3
    133c:	1085883a 	add	r2,r2,r2
    1340:	10c5883a 	add	r2,r2,r3
    1344:	e0fff617 	ldw	r3,-40(fp)
    1348:	1885883a 	add	r2,r3,r2
    134c:	10800043 	ldbu	r2,1(r2)
    1350:	10803fcc 	andi	r2,r2,255
    1354:	e13ff917 	ldw	r4,-28(fp)
    1358:	01404c84 	movi	r5,306
    135c:	100d883a 	mov	r6,r2
    1360:	00002600 	call	260 <ad9361_spi_write>
		ad9361_spi_write(spi, REG_GAIN_TABLE_WRITE_DATA3, tab[i][2]); /* DC Cal bit & Dig Gain Word */
    1364:	e0fff817 	ldw	r3,-32(fp)
    1368:	1805883a 	mov	r2,r3
    136c:	1085883a 	add	r2,r2,r2
    1370:	10c5883a 	add	r2,r2,r3
    1374:	e0fff617 	ldw	r3,-40(fp)
    1378:	1885883a 	add	r2,r3,r2
    137c:	10800083 	ldbu	r2,2(r2)
    1380:	10803fcc 	andi	r2,r2,255
    1384:	e13ff917 	ldw	r4,-28(fp)
    1388:	01404cc4 	movi	r5,307
    138c:	100d883a 	mov	r6,r2
    1390:	00002600 	call	260 <ad9361_spi_write>
		ad9361_spi_write(spi, REG_GAIN_TABLE_CONFIG,
			START_GAIN_TABLE_CLOCK |
			WRITE_GAIN_TABLE |
			RECEIVER_SELECT(dest)); /* Gain Table Index */
    1394:	e0bfff17 	ldw	r2,-4(fp)
    1398:	108000cc 	andi	r2,r2,3
    139c:	100490fa 	slli	r2,r2,3
	for (i = 0; i < index_max; i++) {
		ad9361_spi_write(spi, REG_GAIN_TABLE_ADDRESS, i); /* Gain Table Index */
		ad9361_spi_write(spi, REG_GAIN_TABLE_WRITE_DATA1, tab[i][0] | lna); /* Ext LNA, Int LNA, & Mixer Gain Word */
		ad9361_spi_write(spi, REG_GAIN_TABLE_WRITE_DATA2, tab[i][1]); /* TIA & LPF Word */
		ad9361_spi_write(spi, REG_GAIN_TABLE_WRITE_DATA3, tab[i][2]); /* DC Cal bit & Dig Gain Word */
		ad9361_spi_write(spi, REG_GAIN_TABLE_CONFIG,
    13a0:	10800194 	ori	r2,r2,6
    13a4:	e13ff917 	ldw	r4,-28(fp)
    13a8:	01404dc4 	movi	r5,311
    13ac:	100d883a 	mov	r6,r2
    13b0:	00002600 	call	260 <ad9361_spi_write>
			START_GAIN_TABLE_CLOCK |
			WRITE_GAIN_TABLE |
			RECEIVER_SELECT(dest)); /* Gain Table Index */
		ad9361_spi_write(spi, REG_GAIN_TABLE_READ_DATA1, 0); /* Dummy Write to delay 3 ADCCLK/16 cycles */
    13b4:	e13ff917 	ldw	r4,-28(fp)
    13b8:	01404d04 	movi	r5,308
    13bc:	000d883a 	mov	r6,zero
    13c0:	00002600 	call	260 <ad9361_spi_write>
		ad9361_spi_write(spi, REG_GAIN_TABLE_READ_DATA1, 0); /* Dummy Write to delay ~1u */
    13c4:	e13ff917 	ldw	r4,-28(fp)
    13c8:	01404d04 	movi	r5,308
    13cc:	000d883a 	mov	r6,zero
    13d0:	00002600 	call	260 <ad9361_spi_write>
			EXT_LNA_CTRL : 0;

	ad9361_spi_write(spi, REG_GAIN_TABLE_CONFIG, START_GAIN_TABLE_CLOCK |
		RECEIVER_SELECT(dest)); /* Start Gain Table Clock */

	for (i = 0; i < index_max; i++) {
    13d4:	e0bff817 	ldw	r2,-32(fp)
    13d8:	10800044 	addi	r2,r2,1
    13dc:	e0bff815 	stw	r2,-32(fp)
    13e0:	e0fff817 	ldw	r3,-32(fp)
    13e4:	e0bff717 	ldw	r2,-36(fp)
    13e8:	18bfc036 	bltu	r3,r2,12ec <_gp+0xfffcf1cc>
		ad9361_spi_write(spi, REG_GAIN_TABLE_READ_DATA1, 0); /* Dummy Write to delay 3 ADCCLK/16 cycles */
		ad9361_spi_write(spi, REG_GAIN_TABLE_READ_DATA1, 0); /* Dummy Write to delay ~1u */
	}

	ad9361_spi_write(spi, REG_GAIN_TABLE_CONFIG, START_GAIN_TABLE_CLOCK |
		RECEIVER_SELECT(dest)); /* Clear Write Bit */
    13ec:	e0bfff17 	ldw	r2,-4(fp)
    13f0:	108000cc 	andi	r2,r2,3
    13f4:	100490fa 	slli	r2,r2,3
			RECEIVER_SELECT(dest)); /* Gain Table Index */
		ad9361_spi_write(spi, REG_GAIN_TABLE_READ_DATA1, 0); /* Dummy Write to delay 3 ADCCLK/16 cycles */
		ad9361_spi_write(spi, REG_GAIN_TABLE_READ_DATA1, 0); /* Dummy Write to delay ~1u */
	}

	ad9361_spi_write(spi, REG_GAIN_TABLE_CONFIG, START_GAIN_TABLE_CLOCK |
    13f8:	10800094 	ori	r2,r2,2
    13fc:	e13ff917 	ldw	r4,-28(fp)
    1400:	01404dc4 	movi	r5,311
    1404:	100d883a 	mov	r6,r2
    1408:	00002600 	call	260 <ad9361_spi_write>
		RECEIVER_SELECT(dest)); /* Clear Write Bit */
	ad9361_spi_write(spi, REG_GAIN_TABLE_READ_DATA1, 0); /* Dummy Write to delay ~1u */
    140c:	e13ff917 	ldw	r4,-28(fp)
    1410:	01404d04 	movi	r5,308
    1414:	000d883a 	mov	r6,zero
    1418:	00002600 	call	260 <ad9361_spi_write>
	ad9361_spi_write(spi, REG_GAIN_TABLE_READ_DATA1, 0); /* Dummy Write to delay ~1u */
    141c:	e13ff917 	ldw	r4,-28(fp)
    1420:	01404d04 	movi	r5,308
    1424:	000d883a 	mov	r6,zero
    1428:	00002600 	call	260 <ad9361_spi_write>
	ad9361_spi_write(spi, REG_GAIN_TABLE_CONFIG, 0); /* Stop Gain Table Clock */
    142c:	e13ff917 	ldw	r4,-28(fp)
    1430:	01404dc4 	movi	r5,311
    1434:	000d883a 	mov	r6,zero
    1438:	00002600 	call	260 <ad9361_spi_write>

	phy->current_table = band;
    143c:	e0bffc17 	ldw	r2,-16(fp)
    1440:	e0fffa17 	ldw	r3,-24(fp)
    1444:	10c04415 	stw	r3,272(r2)

	return 0;
    1448:	0005883a 	mov	r2,zero
}
    144c:	e037883a 	mov	sp,fp
    1450:	dfc00117 	ldw	ra,4(sp)
    1454:	df000017 	ldw	fp,0(sp)
    1458:	dec00204 	addi	sp,sp,8
    145c:	f800283a 	ret

00001460 <ad9361_setup_ext_lna>:
 * @param ctrl Pointer to eLNA control structure.
 * @return 0 in case of success, negative error code otherwise.
 */
static int32_t ad9361_setup_ext_lna(struct ad9361_rf_phy *phy,
struct elna_control *ctrl)
{
    1460:	defffa04 	addi	sp,sp,-24
    1464:	de00012e 	bgeu	sp,et,146c <ad9361_setup_ext_lna+0xc>
    1468:	003b68fa 	trap	3
    146c:	dfc00515 	stw	ra,20(sp)
    1470:	df000415 	stw	fp,16(sp)
    1474:	dc000315 	stw	r16,12(sp)
    1478:	df000404 	addi	fp,sp,16
    147c:	e13ffd15 	stw	r4,-12(fp)
    1480:	e17ffe15 	stw	r5,-8(fp)
	ad9361_spi_writef(phy->spi, REG_EXTERNAL_LNA_CTRL, EXTERNAL_LNA1_CTRL,
    1484:	e0bffd17 	ldw	r2,-12(fp)
    1488:	14000117 	ldw	r16,4(r2)
    148c:	01000804 	movi	r4,32
    1490:	001c8300 	call	1c830 <find_first_bit>
    1494:	1007883a 	mov	r3,r2
    1498:	e0bffe17 	ldw	r2,-8(fp)
    149c:	10800203 	ldbu	r2,8(r2)
    14a0:	10803fcc 	andi	r2,r2,255
    14a4:	d8800015 	stw	r2,0(sp)
    14a8:	8009883a 	mov	r4,r16
    14ac:	01400984 	movi	r5,38
    14b0:	01800804 	movi	r6,32
    14b4:	180f883a 	mov	r7,r3
    14b8:	000031c0 	call	31c <__ad9361_spi_writef>
		ctrl->elna_1_control_en);

	ad9361_spi_writef(phy->spi, REG_EXTERNAL_LNA_CTRL, EXTERNAL_LNA2_CTRL,
    14bc:	e0bffd17 	ldw	r2,-12(fp)
    14c0:	14000117 	ldw	r16,4(r2)
    14c4:	01001004 	movi	r4,64
    14c8:	001c8300 	call	1c830 <find_first_bit>
    14cc:	1007883a 	mov	r3,r2
    14d0:	e0bffe17 	ldw	r2,-8(fp)
    14d4:	10800243 	ldbu	r2,9(r2)
    14d8:	10803fcc 	andi	r2,r2,255
    14dc:	d8800015 	stw	r2,0(sp)
    14e0:	8009883a 	mov	r4,r16
    14e4:	01400984 	movi	r5,38
    14e8:	01801004 	movi	r6,64
    14ec:	180f883a 	mov	r7,r3
    14f0:	000031c0 	call	31c <__ad9361_spi_writef>
		ctrl->elna_2_control_en);

	ad9361_spi_write(phy->spi, REG_EXT_LNA_HIGH_GAIN,
    14f4:	e0bffd17 	ldw	r2,-12(fp)
    14f8:	14000117 	ldw	r16,4(r2)
		EXT_LNA_HIGH_GAIN(ctrl->gain_mdB / 500));
    14fc:	e0bffe17 	ldw	r2,-8(fp)
    1500:	1080000b 	ldhu	r2,0(r2)
		ctrl->elna_1_control_en);

	ad9361_spi_writef(phy->spi, REG_EXTERNAL_LNA_CTRL, EXTERNAL_LNA2_CTRL,
		ctrl->elna_2_control_en);

	ad9361_spi_write(phy->spi, REG_EXT_LNA_HIGH_GAIN,
    1504:	10bfffcc 	andi	r2,r2,65535
    1508:	1009883a 	mov	r4,r2
    150c:	01407d04 	movi	r5,500
    1510:	001d7a40 	call	1d7a4 <__udivsi3>
    1514:	10bfffcc 	andi	r2,r2,65535
    1518:	10800fcc 	andi	r2,r2,63
    151c:	8009883a 	mov	r4,r16
    1520:	01404b04 	movi	r5,300
    1524:	100d883a 	mov	r6,r2
    1528:	00002600 	call	260 <ad9361_spi_write>
		EXT_LNA_HIGH_GAIN(ctrl->gain_mdB / 500));

	return ad9361_spi_write(phy->spi, REG_EXT_LNA_LOW_GAIN,
    152c:	e0bffd17 	ldw	r2,-12(fp)
    1530:	14000117 	ldw	r16,4(r2)
		EXT_LNA_LOW_GAIN(ctrl->bypass_loss_mdB / 500));
    1534:	e0bffe17 	ldw	r2,-8(fp)
    1538:	1080008b 	ldhu	r2,2(r2)
		ctrl->elna_2_control_en);

	ad9361_spi_write(phy->spi, REG_EXT_LNA_HIGH_GAIN,
		EXT_LNA_HIGH_GAIN(ctrl->gain_mdB / 500));

	return ad9361_spi_write(phy->spi, REG_EXT_LNA_LOW_GAIN,
    153c:	10bfffcc 	andi	r2,r2,65535
    1540:	1009883a 	mov	r4,r2
    1544:	01407d04 	movi	r5,500
    1548:	001d7a40 	call	1d7a4 <__udivsi3>
    154c:	10bfffcc 	andi	r2,r2,65535
    1550:	10800fcc 	andi	r2,r2,63
    1554:	8009883a 	mov	r4,r16
    1558:	01404b44 	movi	r5,301
    155c:	100d883a 	mov	r6,r2
    1560:	00002600 	call	260 <ad9361_spi_write>
		EXT_LNA_LOW_GAIN(ctrl->bypass_loss_mdB / 500));
}
    1564:	e6ffff04 	addi	sp,fp,-4
    1568:	dfc00217 	ldw	ra,8(sp)
    156c:	df000117 	ldw	fp,4(sp)
    1570:	dc000017 	ldw	r16,0(sp)
    1574:	dec00304 	addi	sp,sp,12
    1578:	f800283a 	ret

0000157c <ad9361_clkout_control>:
 * @param mode The clock output mode [].
 * @return 0 in case of success, negative error code otherwise.
 */
static int32_t ad9361_clkout_control(struct ad9361_rf_phy *phy,
enum ad9361_clkout mode)
{
    157c:	defffa04 	addi	sp,sp,-24
    1580:	de00012e 	bgeu	sp,et,1588 <ad9361_clkout_control+0xc>
    1584:	003b68fa 	trap	3
    1588:	dfc00515 	stw	ra,20(sp)
    158c:	df000415 	stw	fp,16(sp)
    1590:	dc000315 	stw	r16,12(sp)
    1594:	df000404 	addi	fp,sp,16
    1598:	e13ffd15 	stw	r4,-12(fp)
    159c:	e17ffe15 	stw	r5,-8(fp)
	if (mode == CLKOUT_DISABLE)
    15a0:	e0bffe17 	ldw	r2,-8(fp)
    15a4:	10000b1e 	bne	r2,zero,15d4 <ad9361_clkout_control+0x58>
		return ad9361_spi_writef(phy->spi, REG_BBPLL, CLKOUT_ENABLE, 0);
    15a8:	e0bffd17 	ldw	r2,-12(fp)
    15ac:	14000117 	ldw	r16,4(r2)
    15b0:	01000404 	movi	r4,16
    15b4:	001c8300 	call	1c830 <find_first_bit>
    15b8:	d8000015 	stw	zero,0(sp)
    15bc:	8009883a 	mov	r4,r16
    15c0:	01400284 	movi	r5,10
    15c4:	01800404 	movi	r6,16
    15c8:	100f883a 	mov	r7,r2
    15cc:	000031c0 	call	31c <__ad9361_spi_writef>
    15d0:	00000f06 	br	1610 <ad9361_clkout_control+0x94>

	return ad9361_spi_writef(phy->spi, REG_BBPLL,
    15d4:	e0bffd17 	ldw	r2,-12(fp)
    15d8:	14000117 	ldw	r16,4(r2)
    15dc:	01003c04 	movi	r4,240
    15e0:	001c8300 	call	1c830 <find_first_bit>
    15e4:	1007883a 	mov	r3,r2
    15e8:	e0bffe17 	ldw	r2,-8(fp)
    15ec:	10bfffc4 	addi	r2,r2,-1
    15f0:	1085883a 	add	r2,r2,r2
    15f4:	10800054 	ori	r2,r2,1
    15f8:	d8800015 	stw	r2,0(sp)
    15fc:	8009883a 	mov	r4,r16
    1600:	01400284 	movi	r5,10
    1604:	01803c04 	movi	r6,240
    1608:	180f883a 	mov	r7,r3
    160c:	000031c0 	call	31c <__ad9361_spi_writef>
		CLKOUT_ENABLE | CLKOUT_SELECT(~0),
		((mode - 1) << 1) | 0x1);
}
    1610:	e6ffff04 	addi	sp,fp,-4
    1614:	dfc00217 	ldw	ra,8(sp)
    1618:	df000117 	ldw	fp,4(sp)
    161c:	dc000017 	ldw	r16,0(sp)
    1620:	dec00304 	addi	sp,sp,12
    1624:	f800283a 	ret

00001628 <ad9361_load_mixer_gm_subtable>:
 * Load the Gm Sub Table.
 * @param phy The AD9361 state structure.
 * @return 0 in case of success, negative error code otherwise.
 */
static int32_t ad9361_load_mixer_gm_subtable(struct ad9361_rf_phy *phy)
{
    1628:	defffb04 	addi	sp,sp,-20
    162c:	de00012e 	bgeu	sp,et,1634 <ad9361_load_mixer_gm_subtable+0xc>
    1630:	003b68fa 	trap	3
    1634:	dfc00415 	stw	ra,16(sp)
    1638:	df000315 	stw	fp,12(sp)
    163c:	df000304 	addi	fp,sp,12
    1640:	e13fff15 	stw	r4,-4(fp)
	int32_t i, addr;
	dev_dbg(&phy->spi->dev, "%s", __func__);
    1644:	010000b4 	movhi	r4,2
    1648:	211aac04 	addi	r4,r4,27312
    164c:	014000b4 	movhi	r5,2
    1650:	295e8d04 	addi	r5,r5,31284
    1654:	001f8180 	call	1f818 <printf>
    1658:	010000b4 	movhi	r4,2
    165c:	211a7504 	addi	r4,r4,27092
    1660:	001f8180 	call	1f818 <printf>

	ad9361_spi_write(phy->spi, REG_GM_SUB_TABLE_CONFIG,
    1664:	e0bfff17 	ldw	r2,-4(fp)
    1668:	10800117 	ldw	r2,4(r2)
    166c:	1009883a 	mov	r4,r2
    1670:	01404fc4 	movi	r5,319
    1674:	01800084 	movi	r6,2
    1678:	00002600 	call	260 <ad9361_spi_write>
		START_GM_SUB_TABLE_CLOCK); /* Start Clock */

	for (i = 0, addr = ARRAY_SIZE(gm_st_ctrl); i < (int64_t)ARRAY_SIZE(gm_st_ctrl); i++) {
    167c:	e03ffd15 	stw	zero,-12(fp)
    1680:	00800404 	movi	r2,16
    1684:	e0bffe15 	stw	r2,-8(fp)
    1688:	00003b06 	br	1778 <ad9361_load_mixer_gm_subtable+0x150>
		ad9361_spi_write(phy->spi, REG_GM_SUB_TABLE_ADDRESS, --addr); /* Gain Table Index */
    168c:	e0bfff17 	ldw	r2,-4(fp)
    1690:	10c00117 	ldw	r3,4(r2)
    1694:	e0bffe17 	ldw	r2,-8(fp)
    1698:	10bfffc4 	addi	r2,r2,-1
    169c:	e0bffe15 	stw	r2,-8(fp)
    16a0:	e0bffe17 	ldw	r2,-8(fp)
    16a4:	1809883a 	mov	r4,r3
    16a8:	01404e04 	movi	r5,312
    16ac:	100d883a 	mov	r6,r2
    16b0:	00002600 	call	260 <ad9361_spi_write>
		ad9361_spi_write(phy->spi, REG_GM_SUB_TABLE_BIAS_WRITE, 0); /* Bias */
    16b4:	e0bfff17 	ldw	r2,-4(fp)
    16b8:	10800117 	ldw	r2,4(r2)
    16bc:	1009883a 	mov	r4,r2
    16c0:	01404e84 	movi	r5,314
    16c4:	000d883a 	mov	r6,zero
    16c8:	00002600 	call	260 <ad9361_spi_write>
		ad9361_spi_write(phy->spi, REG_GM_SUB_TABLE_GAIN_WRITE, gm_st_gain[i]); /* Gain */
    16cc:	e0bfff17 	ldw	r2,-4(fp)
    16d0:	11000117 	ldw	r4,4(r2)
    16d4:	008000b4 	movhi	r2,2
    16d8:	109a3484 	addi	r2,r2,26834
    16dc:	e0fffd17 	ldw	r3,-12(fp)
    16e0:	10c5883a 	add	r2,r2,r3
    16e4:	10800003 	ldbu	r2,0(r2)
    16e8:	10803fcc 	andi	r2,r2,255
    16ec:	01404e44 	movi	r5,313
    16f0:	100d883a 	mov	r6,r2
    16f4:	00002600 	call	260 <ad9361_spi_write>
		ad9361_spi_write(phy->spi, REG_GM_SUB_TABLE_CTRL_WRITE, gm_st_ctrl[i]); /* Control */
    16f8:	e0bfff17 	ldw	r2,-4(fp)
    16fc:	11000117 	ldw	r4,4(r2)
    1700:	008000b4 	movhi	r2,2
    1704:	109a3884 	addi	r2,r2,26850
    1708:	e0fffd17 	ldw	r3,-12(fp)
    170c:	10c5883a 	add	r2,r2,r3
    1710:	10800003 	ldbu	r2,0(r2)
    1714:	10803fcc 	andi	r2,r2,255
    1718:	01404ec4 	movi	r5,315
    171c:	100d883a 	mov	r6,r2
    1720:	00002600 	call	260 <ad9361_spi_write>
		ad9361_spi_write(phy->spi, REG_GM_SUB_TABLE_CONFIG,
    1724:	e0bfff17 	ldw	r2,-4(fp)
    1728:	10800117 	ldw	r2,4(r2)
    172c:	1009883a 	mov	r4,r2
    1730:	01404fc4 	movi	r5,319
    1734:	01800184 	movi	r6,6
    1738:	00002600 	call	260 <ad9361_spi_write>
			WRITE_GM_SUB_TABLE | START_GM_SUB_TABLE_CLOCK); /* Write Words */
		ad9361_spi_write(phy->spi, REG_GM_SUB_TABLE_GAIN_READ, 0); /* Dummy Delay */
    173c:	e0bfff17 	ldw	r2,-4(fp)
    1740:	10800117 	ldw	r2,4(r2)
    1744:	1009883a 	mov	r4,r2
    1748:	01404f04 	movi	r5,316
    174c:	000d883a 	mov	r6,zero
    1750:	00002600 	call	260 <ad9361_spi_write>
		ad9361_spi_write(phy->spi, REG_GM_SUB_TABLE_GAIN_READ, 0); /* Dummy Delay */
    1754:	e0bfff17 	ldw	r2,-4(fp)
    1758:	10800117 	ldw	r2,4(r2)
    175c:	1009883a 	mov	r4,r2
    1760:	01404f04 	movi	r5,316
    1764:	000d883a 	mov	r6,zero
    1768:	00002600 	call	260 <ad9361_spi_write>
	dev_dbg(&phy->spi->dev, "%s", __func__);

	ad9361_spi_write(phy->spi, REG_GM_SUB_TABLE_CONFIG,
		START_GM_SUB_TABLE_CLOCK); /* Start Clock */

	for (i = 0, addr = ARRAY_SIZE(gm_st_ctrl); i < (int64_t)ARRAY_SIZE(gm_st_ctrl); i++) {
    176c:	e0bffd17 	ldw	r2,-12(fp)
    1770:	10800044 	addi	r2,r2,1
    1774:	e0bffd15 	stw	r2,-12(fp)
    1778:	e0bffd17 	ldw	r2,-12(fp)
    177c:	10800410 	cmplti	r2,r2,16
    1780:	103fc21e 	bne	r2,zero,168c <_gp+0xfffcf56c>
			WRITE_GM_SUB_TABLE | START_GM_SUB_TABLE_CLOCK); /* Write Words */
		ad9361_spi_write(phy->spi, REG_GM_SUB_TABLE_GAIN_READ, 0); /* Dummy Delay */
		ad9361_spi_write(phy->spi, REG_GM_SUB_TABLE_GAIN_READ, 0); /* Dummy Delay */
	}

	ad9361_spi_write(phy->spi, REG_GM_SUB_TABLE_CONFIG, START_GM_SUB_TABLE_CLOCK); /* Clear Write */
    1784:	e0bfff17 	ldw	r2,-4(fp)
    1788:	10800117 	ldw	r2,4(r2)
    178c:	1009883a 	mov	r4,r2
    1790:	01404fc4 	movi	r5,319
    1794:	01800084 	movi	r6,2
    1798:	00002600 	call	260 <ad9361_spi_write>
	ad9361_spi_write(phy->spi, REG_GM_SUB_TABLE_GAIN_READ, 0); /* Dummy Delay */
    179c:	e0bfff17 	ldw	r2,-4(fp)
    17a0:	10800117 	ldw	r2,4(r2)
    17a4:	1009883a 	mov	r4,r2
    17a8:	01404f04 	movi	r5,316
    17ac:	000d883a 	mov	r6,zero
    17b0:	00002600 	call	260 <ad9361_spi_write>
	ad9361_spi_write(phy->spi, REG_GM_SUB_TABLE_GAIN_READ, 0); /* Dummy Delay */
    17b4:	e0bfff17 	ldw	r2,-4(fp)
    17b8:	10800117 	ldw	r2,4(r2)
    17bc:	1009883a 	mov	r4,r2
    17c0:	01404f04 	movi	r5,316
    17c4:	000d883a 	mov	r6,zero
    17c8:	00002600 	call	260 <ad9361_spi_write>
	ad9361_spi_write(phy->spi, REG_GM_SUB_TABLE_CONFIG, 0); /* Stop Clock */
    17cc:	e0bfff17 	ldw	r2,-4(fp)
    17d0:	10800117 	ldw	r2,4(r2)
    17d4:	1009883a 	mov	r4,r2
    17d8:	01404fc4 	movi	r5,319
    17dc:	000d883a 	mov	r6,zero
    17e0:	00002600 	call	260 <ad9361_spi_write>

	return 0;
    17e4:	0005883a 	mov	r2,zero
}
    17e8:	e037883a 	mov	sp,fp
    17ec:	dfc00117 	ldw	ra,4(sp)
    17f0:	df000017 	ldw	fp,0(sp)
    17f4:	dec00204 	addi	sp,sp,8
    17f8:	f800283a 	ret

000017fc <ad9361_set_tx_atten>:
 * @param immed Set true, an immediate update will take place.
 * @return 0 in case of success, negative error code otherwise.
 */
int32_t ad9361_set_tx_atten(struct ad9361_rf_phy *phy, uint32_t atten_mdb,
	bool tx1, bool tx2, bool immed)
{
    17fc:	defff504 	addi	sp,sp,-44
    1800:	de00012e 	bgeu	sp,et,1808 <ad9361_set_tx_atten+0xc>
    1804:	003b68fa 	trap	3
    1808:	dfc00a15 	stw	ra,40(sp)
    180c:	df000915 	stw	fp,36(sp)
    1810:	dc000815 	stw	r16,32(sp)
    1814:	df000904 	addi	fp,sp,36
    1818:	e13ffa15 	stw	r4,-24(fp)
    181c:	e17ffb15 	stw	r5,-20(fp)
    1820:	3009883a 	mov	r4,r6
    1824:	3807883a 	mov	r3,r7
    1828:	e0800217 	ldw	r2,8(fp)
    182c:	e13ffc05 	stb	r4,-16(fp)
    1830:	e0fffd05 	stb	r3,-12(fp)
    1834:	e0bffe05 	stb	r2,-8(fp)
	uint8_t buf[2];
	int32_t ret = 0;
    1838:	e03ff815 	stw	zero,-32(fp)

	dev_dbg(&phy->spi->dev, "%s : attenuation %"PRIu32" mdB tx1=%d tx2=%d",
    183c:	e0fffc03 	ldbu	r3,-16(fp)
    1840:	e0bffd03 	ldbu	r2,-12(fp)
    1844:	d8800015 	stw	r2,0(sp)
    1848:	010000b4 	movhi	r4,2
    184c:	211aad04 	addi	r4,r4,27316
    1850:	014000b4 	movhi	r5,2
    1854:	295e9504 	addi	r5,r5,31316
    1858:	e1bffb17 	ldw	r6,-20(fp)
    185c:	180f883a 	mov	r7,r3
    1860:	001f8180 	call	1f818 <printf>
    1864:	010000b4 	movhi	r4,2
    1868:	211a7504 	addi	r4,r4,27092
    186c:	001f8180 	call	1f818 <printf>
		__func__, atten_mdb, tx1, tx2);

	if (atten_mdb > 89750) /* 89.75 dB */
    1870:	e0fffb17 	ldw	r3,-20(fp)
    1874:	00800074 	movhi	r2,1
    1878:	1097a584 	addi	r2,r2,24214
    187c:	10c0022e 	bgeu	r2,r3,1888 <ad9361_set_tx_atten+0x8c>
		return -EINVAL;
    1880:	00bffa84 	movi	r2,-22
    1884:	00003906 	br	196c <ad9361_set_tx_atten+0x170>

	atten_mdb /= 250; /* Scale to 0.25dB / LSB */
    1888:	e0bffb17 	ldw	r2,-20(fp)
    188c:	1009883a 	mov	r4,r2
    1890:	01403e84 	movi	r5,250
    1894:	001d7a40 	call	1d7a4 <__udivsi3>
    1898:	e0bffb15 	stw	r2,-20(fp)

	buf[0] = atten_mdb >> 8;
    189c:	e0bffb17 	ldw	r2,-20(fp)
    18a0:	1004d23a 	srli	r2,r2,8
    18a4:	e0bff905 	stb	r2,-28(fp)
	buf[1] = atten_mdb & 0xFF;
    18a8:	e0bffb17 	ldw	r2,-20(fp)
    18ac:	e0bff945 	stb	r2,-27(fp)

	ad9361_spi_writef(phy->spi, REG_TX2_DIG_ATTEN,
    18b0:	e0bffa17 	ldw	r2,-24(fp)
    18b4:	14000117 	ldw	r16,4(r2)
    18b8:	01001004 	movi	r4,64
    18bc:	001c8300 	call	1c830 <find_first_bit>
    18c0:	d8000015 	stw	zero,0(sp)
    18c4:	8009883a 	mov	r4,r16
    18c8:	01401f04 	movi	r5,124
    18cc:	01801004 	movi	r6,64
    18d0:	100f883a 	mov	r7,r2
    18d4:	000031c0 	call	31c <__ad9361_spi_writef>
		IMMEDIATELY_UPDATE_TPC_ATTEN, 0);

	if (tx1)
    18d8:	e0bffc03 	ldbu	r2,-16(fp)
    18dc:	10000926 	beq	r2,zero,1904 <ad9361_set_tx_atten+0x108>
		ret = ad9361_spi_writem(phy->spi, REG_TX1_ATTEN_1, buf, 2);
    18e0:	e0bffa17 	ldw	r2,-24(fp)
    18e4:	10c00117 	ldw	r3,4(r2)
    18e8:	e0bff904 	addi	r2,fp,-28
    18ec:	1809883a 	mov	r4,r3
    18f0:	01401d04 	movi	r5,116
    18f4:	100d883a 	mov	r6,r2
    18f8:	01c00084 	movi	r7,2
    18fc:	00003ec0 	call	3ec <ad9361_spi_writem>
    1900:	e0bff815 	stw	r2,-32(fp)

	if (tx2)
    1904:	e0bffd03 	ldbu	r2,-12(fp)
    1908:	10000926 	beq	r2,zero,1930 <ad9361_set_tx_atten+0x134>
		ret = ad9361_spi_writem(phy->spi, REG_TX2_ATTEN_1, buf, 2);
    190c:	e0bffa17 	ldw	r2,-24(fp)
    1910:	10c00117 	ldw	r3,4(r2)
    1914:	e0bff904 	addi	r2,fp,-28
    1918:	1809883a 	mov	r4,r3
    191c:	01401d84 	movi	r5,118
    1920:	100d883a 	mov	r6,r2
    1924:	01c00084 	movi	r7,2
    1928:	00003ec0 	call	3ec <ad9361_spi_writem>
    192c:	e0bff815 	stw	r2,-32(fp)

	if (immed)
    1930:	e0bffe03 	ldbu	r2,-8(fp)
    1934:	10000c26 	beq	r2,zero,1968 <ad9361_set_tx_atten+0x16c>
		ad9361_spi_writef(phy->spi, REG_TX2_DIG_ATTEN,
    1938:	e0bffa17 	ldw	r2,-24(fp)
    193c:	14000117 	ldw	r16,4(r2)
    1940:	01001004 	movi	r4,64
    1944:	001c8300 	call	1c830 <find_first_bit>
    1948:	1007883a 	mov	r3,r2
    194c:	00800044 	movi	r2,1
    1950:	d8800015 	stw	r2,0(sp)
    1954:	8009883a 	mov	r4,r16
    1958:	01401f04 	movi	r5,124
    195c:	01801004 	movi	r6,64
    1960:	180f883a 	mov	r7,r3
    1964:	000031c0 	call	31c <__ad9361_spi_writef>
		IMMEDIATELY_UPDATE_TPC_ATTEN, 1);

	return ret;
    1968:	e0bff817 	ldw	r2,-32(fp)
}
    196c:	e6ffff04 	addi	sp,fp,-4
    1970:	dfc00217 	ldw	ra,8(sp)
    1974:	df000117 	ldw	fp,4(sp)
    1978:	dc000017 	ldw	r16,0(sp)
    197c:	dec00304 	addi	sp,sp,12
    1980:	f800283a 	ret

00001984 <ad9361_get_tx_atten>:
 * @param phy The AD9361 state structure.
 * @param tx_num The selected channel [1, 2].
 * @return The attenuation value [mdB] or negative error code in case of failure.
 */
int32_t ad9361_get_tx_atten(struct ad9361_rf_phy *phy, uint32_t tx_num)
{
    1984:	defff904 	addi	sp,sp,-28
    1988:	de00012e 	bgeu	sp,et,1990 <ad9361_get_tx_atten+0xc>
    198c:	003b68fa 	trap	3
    1990:	dfc00615 	stw	ra,24(sp)
    1994:	df000515 	stw	fp,20(sp)
    1998:	df000504 	addi	fp,sp,20
    199c:	e13ffe15 	stw	r4,-8(fp)
    19a0:	e17fff15 	stw	r5,-4(fp)
	uint8_t buf[2];
	int32_t ret = 0;
    19a4:	e03ffb15 	stw	zero,-20(fp)
	uint32_t code;

	ret = ad9361_spi_readm(phy->spi, (tx_num == 1) ?
    19a8:	e0bffe17 	ldw	r2,-8(fp)
    19ac:	11000117 	ldw	r4,4(r2)
    19b0:	e0bfff17 	ldw	r2,-4(fp)
    19b4:	10800058 	cmpnei	r2,r2,1
    19b8:	1000021e 	bne	r2,zero,19c4 <ad9361_get_tx_atten+0x40>
    19bc:	00801d04 	movi	r2,116
    19c0:	00000106 	br	19c8 <ad9361_get_tx_atten+0x44>
    19c4:	00801d84 	movi	r2,118
    19c8:	e0fffd04 	addi	r3,fp,-12
    19cc:	100b883a 	mov	r5,r2
    19d0:	180d883a 	mov	r6,r3
    19d4:	01c00084 	movi	r7,2
    19d8:	00000740 	call	74 <ad9361_spi_readm>
    19dc:	e0bffb15 	stw	r2,-20(fp)
	REG_TX1_ATTEN_1 : REG_TX2_ATTEN_1, buf, 2);

	if (ret < 0)
    19e0:	e0bffb17 	ldw	r2,-20(fp)
    19e4:	1000020e 	bge	r2,zero,19f0 <ad9361_get_tx_atten+0x6c>
		return ret;
    19e8:	e0bffb17 	ldw	r2,-20(fp)
    19ec:	00000b06 	br	1a1c <ad9361_get_tx_atten+0x98>

	code = (buf[0] << 8) | buf[1];
    19f0:	e0bffd03 	ldbu	r2,-12(fp)
    19f4:	10803fcc 	andi	r2,r2,255
    19f8:	1006923a 	slli	r3,r2,8
    19fc:	e0bffd43 	ldbu	r2,-11(fp)
    1a00:	10803fcc 	andi	r2,r2,255
    1a04:	1884b03a 	or	r2,r3,r2
    1a08:	e0bffc15 	stw	r2,-16(fp)

	code *= 250;
    1a0c:	e0bffc17 	ldw	r2,-16(fp)
    1a10:	10803ea4 	muli	r2,r2,250
    1a14:	e0bffc15 	stw	r2,-16(fp)

	return code;
    1a18:	e0bffc17 	ldw	r2,-16(fp)
}
    1a1c:	e037883a 	mov	sp,fp
    1a20:	dfc00117 	ldw	ra,4(sp)
    1a24:	df000017 	ldw	fp,0(sp)
    1a28:	dec00204 	addi	sp,sp,8
    1a2c:	f800283a 	ret

00001a30 <ad9361_rfvco_tableindex>:
 * Choose the right RF VCO table index for the selected frequency.
 * @param freq The frequency value [Hz].
 * @return The index from the RF VCO table.
 */
static uint32_t ad9361_rfvco_tableindex(uint32_t freq)
{
    1a30:	defffe04 	addi	sp,sp,-8
    1a34:	de00012e 	bgeu	sp,et,1a3c <ad9361_rfvco_tableindex+0xc>
    1a38:	003b68fa 	trap	3
    1a3c:	df000115 	stw	fp,4(sp)
    1a40:	df000104 	addi	fp,sp,4
    1a44:	e13fff15 	stw	r4,-4(fp)
	if (freq < 50000000UL)
    1a48:	e0ffff17 	ldw	r3,-4(fp)
    1a4c:	0080bef4 	movhi	r2,763
    1a50:	10bc1fc4 	addi	r2,r2,-3969
    1a54:	10c00236 	bltu	r2,r3,1a60 <ad9361_rfvco_tableindex+0x30>
		return LUT_FTDD_40;
    1a58:	0005883a 	mov	r2,zero
    1a5c:	00000706 	br	1a7c <ad9361_rfvco_tableindex+0x4c>

	if (freq <= 70000000UL)
    1a60:	e0ffff17 	ldw	r3,-4(fp)
    1a64:	00810b34 	movhi	r2,1068
    1a68:	10876004 	addi	r2,r2,7552
    1a6c:	10c00236 	bltu	r2,r3,1a78 <ad9361_rfvco_tableindex+0x48>
		return LUT_FTDD_60;
    1a70:	00800044 	movi	r2,1
    1a74:	00000106 	br	1a7c <ad9361_rfvco_tableindex+0x4c>

	return LUT_FTDD_80;
    1a78:	00800084 	movi	r2,2
}
    1a7c:	e037883a 	mov	sp,fp
    1a80:	df000017 	ldw	fp,0(sp)
    1a84:	dec00104 	addi	sp,sp,4
    1a88:	f800283a 	ret

00001a8c <ad9361_rfpll_vco_init>:
 * @return 0 in case of success
 */
static int32_t ad9361_rfpll_vco_init(struct ad9361_rf_phy *phy,
	bool tx, uint64_t vco_freq,
	uint32_t ref_clk)
{
    1a8c:	defff104 	addi	sp,sp,-60
    1a90:	de00012e 	bgeu	sp,et,1a98 <ad9361_rfpll_vco_init+0xc>
    1a94:	003b68fa 	trap	3
    1a98:	dfc00e15 	stw	ra,56(sp)
    1a9c:	df000d15 	stw	fp,52(sp)
    1aa0:	dc400c15 	stw	r17,48(sp)
    1aa4:	dc000b15 	stw	r16,44(sp)
    1aa8:	df000d04 	addi	fp,sp,52
    1aac:	e13ffa15 	stw	r4,-24(fp)
    1ab0:	2805883a 	mov	r2,r5
    1ab4:	e1bffc15 	stw	r6,-16(fp)
    1ab8:	e1fffd15 	stw	r7,-12(fp)
    1abc:	e0bffb05 	stb	r2,-20(fp)
	struct spi_device *spi = phy->spi;
    1ac0:	e0bffa17 	ldw	r2,-24(fp)
    1ac4:	10800117 	ldw	r2,4(r2)
    1ac8:	e0bff815 	stw	r2,-32(fp)
	const struct SynthLUT(*tab);
	int32_t i = 0;
    1acc:	e03ff615 	stw	zero,-40(fp)
	uint32_t range, offs = 0;
    1ad0:	e03ff715 	stw	zero,-36(fp)

	range = ad9361_rfvco_tableindex(ref_clk);
    1ad4:	e1000217 	ldw	r4,8(fp)
    1ad8:	0001a300 	call	1a30 <ad9361_rfvco_tableindex>
    1adc:	e0bff915 	stw	r2,-28(fp)

	dev_dbg(&phy->spi->dev, "%s : vco_freq %"PRIu64" : ref_clk %"PRIu32" : range %"PRIu32,
    1ae0:	e0bffc17 	ldw	r2,-16(fp)
    1ae4:	e0fffd17 	ldw	r3,-12(fp)
    1ae8:	e1000217 	ldw	r4,8(fp)
    1aec:	d9000015 	stw	r4,0(sp)
    1af0:	e13ff917 	ldw	r4,-28(fp)
    1af4:	d9000115 	stw	r4,4(sp)
    1af8:	010000b4 	movhi	r4,2
    1afc:	211ab704 	addi	r4,r4,27356
    1b00:	014000b4 	movhi	r5,2
    1b04:	295e9a04 	addi	r5,r5,31336
    1b08:	100d883a 	mov	r6,r2
    1b0c:	180f883a 	mov	r7,r3
    1b10:	001f8180 	call	1f818 <printf>
    1b14:	010000b4 	movhi	r4,2
    1b18:	211a7504 	addi	r4,r4,27092
    1b1c:	001f8180 	call	1f818 <printf>
		__func__, vco_freq, ref_clk, range);

	do_div(&vco_freq, 1000000UL); /* vco_freq in MHz */
    1b20:	e0bffc04 	addi	r2,fp,-16
    1b24:	1009883a 	mov	r4,r2
    1b28:	014003f4 	movhi	r5,15
    1b2c:	29509004 	addi	r5,r5,16960
    1b30:	000d883a 	mov	r6,zero
    1b34:	001c76c0 	call	1c76c <do_div>

	if (phy->pdata->fdd || phy->pdata->tdd_use_fdd_tables) {
    1b38:	e0bffa17 	ldw	r2,-24(fp)
    1b3c:	10803017 	ldw	r2,192(r2)
    1b40:	10800043 	ldbu	r2,1(r2)
    1b44:	10803fcc 	andi	r2,r2,255
    1b48:	1000051e 	bne	r2,zero,1b60 <ad9361_rfpll_vco_init+0xd4>
    1b4c:	e0bffa17 	ldw	r2,-24(fp)
    1b50:	10803017 	ldw	r2,192(r2)
    1b54:	10800203 	ldbu	r2,8(r2)
    1b58:	10803fcc 	andi	r2,r2,255
    1b5c:	10000726 	beq	r2,zero,1b7c <ad9361_rfpll_vco_init+0xf0>
		tab = &SynthLUT_FDD[range][0];
    1b60:	e0bff917 	ldw	r2,-28(fp)
    1b64:	10c0b9a4 	muli	r3,r2,742
    1b68:	008000b4 	movhi	r2,2
    1b6c:	1094d204 	addi	r2,r2,21320
    1b70:	1885883a 	add	r2,r3,r2
    1b74:	e0bff515 	stw	r2,-44(fp)
    1b78:	00000906 	br	1ba0 <ad9361_rfpll_vco_init+0x114>
	} else if (have_tdd_tables) {
    1b7c:	00800044 	movi	r2,1
    1b80:	10803fcc 	andi	r2,r2,255
    1b84:	10000626 	beq	r2,zero,1ba0 <ad9361_rfpll_vco_init+0x114>
		tab = &SynthLUT_TDD[range][0];
    1b88:	e0bff917 	ldw	r2,-28(fp)
    1b8c:	10c0b9a4 	muli	r3,r2,742
    1b90:	008000b4 	movhi	r2,2
    1b94:	1096fe84 	addi	r2,r2,23546
    1b98:	1885883a 	add	r2,r3,r2
    1b9c:	e0bff515 	stw	r2,-44(fp)
	}

	if (tx)
    1ba0:	e0bffb03 	ldbu	r2,-20(fp)
    1ba4:	10000226 	beq	r2,zero,1bb0 <ad9361_rfpll_vco_init+0x124>
		offs = REG_TX_VCO_OUTPUT - REG_RX_VCO_OUTPUT;
    1ba8:	00801004 	movi	r2,64
    1bac:	e0bff715 	stw	r2,-36(fp)

	while (i < SYNTH_LUT_SIZE && tab[i].VCO_MHz > vco_freq)
    1bb0:	00000306 	br	1bc0 <ad9361_rfpll_vco_init+0x134>
		i++;
    1bb4:	e0bff617 	ldw	r2,-40(fp)
    1bb8:	10800044 	addi	r2,r2,1
    1bbc:	e0bff615 	stw	r2,-40(fp)
	}

	if (tx)
		offs = REG_TX_VCO_OUTPUT - REG_RX_VCO_OUTPUT;

	while (i < SYNTH_LUT_SIZE && tab[i].VCO_MHz > vco_freq)
    1bc0:	e0bff617 	ldw	r2,-40(fp)
    1bc4:	10800d48 	cmpgei	r2,r2,53
    1bc8:	10000d1e 	bne	r2,zero,1c00 <ad9361_rfpll_vco_init+0x174>
    1bcc:	e0bff617 	ldw	r2,-40(fp)
    1bd0:	108003a4 	muli	r2,r2,14
    1bd4:	e0fff517 	ldw	r3,-44(fp)
    1bd8:	1885883a 	add	r2,r3,r2
    1bdc:	1080000b 	ldhu	r2,0(r2)
    1be0:	10bfffcc 	andi	r2,r2,65535
    1be4:	1021883a 	mov	r16,r2
    1be8:	0023883a 	mov	r17,zero
    1bec:	e0bffc17 	ldw	r2,-16(fp)
    1bf0:	e0fffd17 	ldw	r3,-12(fp)
    1bf4:	1c7fef36 	bltu	r3,r17,1bb4 <_gp+0xfffcfa94>
    1bf8:	88c0011e 	bne	r17,r3,1c00 <ad9361_rfpll_vco_init+0x174>
    1bfc:	143fed36 	bltu	r2,r16,1bb4 <_gp+0xfffcfa94>
		i++;

	dev_dbg(&phy->spi->dev, "%s : freq %d MHz : index %"PRId32,
    1c00:	e0bff617 	ldw	r2,-40(fp)
    1c04:	108003a4 	muli	r2,r2,14
    1c08:	e0fff517 	ldw	r3,-44(fp)
    1c0c:	1885883a 	add	r2,r3,r2
    1c10:	1080000b 	ldhu	r2,0(r2)
    1c14:	10bfffcc 	andi	r2,r2,65535
    1c18:	010000b4 	movhi	r4,2
    1c1c:	211ac304 	addi	r4,r4,27404
    1c20:	014000b4 	movhi	r5,2
    1c24:	295e9a04 	addi	r5,r5,31336
    1c28:	100d883a 	mov	r6,r2
    1c2c:	e1fff617 	ldw	r7,-40(fp)
    1c30:	001f8180 	call	1f818 <printf>
    1c34:	010000b4 	movhi	r4,2
    1c38:	211a7504 	addi	r4,r4,27092
    1c3c:	001f8180 	call	1f818 <printf>
		__func__, tab[i].VCO_MHz, i);

	ad9361_spi_write(spi, REG_RX_VCO_OUTPUT + offs,
    1c40:	e0bff717 	ldw	r2,-36(fp)
    1c44:	11408e84 	addi	r5,r2,570
		VCO_OUTPUT_LEVEL(tab[i].VCO_Output_Level) |
    1c48:	e0bff617 	ldw	r2,-40(fp)
    1c4c:	108003a4 	muli	r2,r2,14
    1c50:	e0fff517 	ldw	r3,-44(fp)
    1c54:	1885883a 	add	r2,r3,r2
    1c58:	10800083 	ldbu	r2,2(r2)
    1c5c:	10803fcc 	andi	r2,r2,255
    1c60:	108003cc 	andi	r2,r2,15
    1c64:	10801014 	ori	r2,r2,64
		i++;

	dev_dbg(&phy->spi->dev, "%s : freq %d MHz : index %"PRId32,
		__func__, tab[i].VCO_MHz, i);

	ad9361_spi_write(spi, REG_RX_VCO_OUTPUT + offs,
    1c68:	e13ff817 	ldw	r4,-32(fp)
    1c6c:	100d883a 	mov	r6,r2
    1c70:	00002600 	call	260 <ad9361_spi_write>
		VCO_OUTPUT_LEVEL(tab[i].VCO_Output_Level) |
		PORB_VCO_LOGIC);
	ad9361_spi_writef(spi, REG_RX_ALC_VARACTOR + offs,
    1c74:	e0bff717 	ldw	r2,-36(fp)
    1c78:	14008e44 	addi	r16,r2,569
    1c7c:	010003c4 	movi	r4,15
    1c80:	001c8300 	call	1c830 <find_first_bit>
    1c84:	100f883a 	mov	r7,r2
    1c88:	e0bff617 	ldw	r2,-40(fp)
    1c8c:	108003a4 	muli	r2,r2,14
    1c90:	e0fff517 	ldw	r3,-44(fp)
    1c94:	1885883a 	add	r2,r3,r2
    1c98:	108000c3 	ldbu	r2,3(r2)
    1c9c:	10803fcc 	andi	r2,r2,255
    1ca0:	d8800015 	stw	r2,0(sp)
    1ca4:	e13ff817 	ldw	r4,-32(fp)
    1ca8:	800b883a 	mov	r5,r16
    1cac:	018003c4 	movi	r6,15
    1cb0:	000031c0 	call	31c <__ad9361_spi_writef>
		VCO_VARACTOR(~0), tab[i].VCO_Varactor);
	ad9361_spi_write(spi, REG_RX_VCO_BIAS_1 + offs,
    1cb4:	e0bff717 	ldw	r2,-36(fp)
    1cb8:	11409084 	addi	r5,r2,578
		VCO_BIAS_REF(tab[i].VCO_Bias_Ref) |
    1cbc:	e0bff617 	ldw	r2,-40(fp)
    1cc0:	108003a4 	muli	r2,r2,14
    1cc4:	e0fff517 	ldw	r3,-44(fp)
    1cc8:	1885883a 	add	r2,r3,r2
    1ccc:	10800103 	ldbu	r2,4(r2)
    1cd0:	10803fcc 	andi	r2,r2,255
    1cd4:	10c001cc 	andi	r3,r2,7
		VCO_BIAS_TCF(tab[i].VCO_Bias_Tcf));
    1cd8:	e0bff617 	ldw	r2,-40(fp)
    1cdc:	108003a4 	muli	r2,r2,14
    1ce0:	e13ff517 	ldw	r4,-44(fp)
    1ce4:	2085883a 	add	r2,r4,r2
    1ce8:	10800143 	ldbu	r2,5(r2)
    1cec:	10803fcc 	andi	r2,r2,255
    1cf0:	108000cc 	andi	r2,r2,3
    1cf4:	100490fa 	slli	r2,r2,3
		VCO_OUTPUT_LEVEL(tab[i].VCO_Output_Level) |
		PORB_VCO_LOGIC);
	ad9361_spi_writef(spi, REG_RX_ALC_VARACTOR + offs,
		VCO_VARACTOR(~0), tab[i].VCO_Varactor);
	ad9361_spi_write(spi, REG_RX_VCO_BIAS_1 + offs,
		VCO_BIAS_REF(tab[i].VCO_Bias_Ref) |
    1cf8:	1884b03a 	or	r2,r3,r2
	ad9361_spi_write(spi, REG_RX_VCO_OUTPUT + offs,
		VCO_OUTPUT_LEVEL(tab[i].VCO_Output_Level) |
		PORB_VCO_LOGIC);
	ad9361_spi_writef(spi, REG_RX_ALC_VARACTOR + offs,
		VCO_VARACTOR(~0), tab[i].VCO_Varactor);
	ad9361_spi_write(spi, REG_RX_VCO_BIAS_1 + offs,
    1cfc:	e13ff817 	ldw	r4,-32(fp)
    1d00:	100d883a 	mov	r6,r2
    1d04:	00002600 	call	260 <ad9361_spi_write>
		VCO_BIAS_REF(tab[i].VCO_Bias_Ref) |
		VCO_BIAS_TCF(tab[i].VCO_Bias_Tcf));

	ad9361_spi_write(spi, REG_RX_FORCE_VCO_TUNE_1 + offs,
    1d08:	e0bff717 	ldw	r2,-36(fp)
    1d0c:	11408e04 	addi	r5,r2,568
		VCO_CAL_OFFSET(tab[i].VCO_Cal_Offset));
    1d10:	e0bff617 	ldw	r2,-40(fp)
    1d14:	108003a4 	muli	r2,r2,14
    1d18:	e0fff517 	ldw	r3,-44(fp)
    1d1c:	1885883a 	add	r2,r3,r2
    1d20:	10800183 	ldbu	r2,6(r2)
    1d24:	10803fcc 	andi	r2,r2,255
    1d28:	108003cc 	andi	r2,r2,15
    1d2c:	100490fa 	slli	r2,r2,3
		VCO_VARACTOR(~0), tab[i].VCO_Varactor);
	ad9361_spi_write(spi, REG_RX_VCO_BIAS_1 + offs,
		VCO_BIAS_REF(tab[i].VCO_Bias_Ref) |
		VCO_BIAS_TCF(tab[i].VCO_Bias_Tcf));

	ad9361_spi_write(spi, REG_RX_FORCE_VCO_TUNE_1 + offs,
    1d30:	e13ff817 	ldw	r4,-32(fp)
    1d34:	100d883a 	mov	r6,r2
    1d38:	00002600 	call	260 <ad9361_spi_write>
		VCO_CAL_OFFSET(tab[i].VCO_Cal_Offset));
	ad9361_spi_write(spi, REG_RX_VCO_VARACTOR_CTRL_1 + offs,
    1d3c:	e0bff717 	ldw	r2,-36(fp)
    1d40:	11409444 	addi	r5,r2,593
		VCO_VARACTOR_REFERENCE(
    1d44:	e0bff617 	ldw	r2,-40(fp)
    1d48:	108003a4 	muli	r2,r2,14
    1d4c:	e0fff517 	ldw	r3,-44(fp)
    1d50:	1885883a 	add	r2,r3,r2
    1d54:	108001c3 	ldbu	r2,7(r2)
		VCO_BIAS_REF(tab[i].VCO_Bias_Ref) |
		VCO_BIAS_TCF(tab[i].VCO_Bias_Tcf));

	ad9361_spi_write(spi, REG_RX_FORCE_VCO_TUNE_1 + offs,
		VCO_CAL_OFFSET(tab[i].VCO_Cal_Offset));
	ad9361_spi_write(spi, REG_RX_VCO_VARACTOR_CTRL_1 + offs,
    1d58:	10803fcc 	andi	r2,r2,255
    1d5c:	108003cc 	andi	r2,r2,15
    1d60:	e13ff817 	ldw	r4,-32(fp)
    1d64:	100d883a 	mov	r6,r2
    1d68:	00002600 	call	260 <ad9361_spi_write>
		VCO_VARACTOR_REFERENCE(
		tab[i].VCO_Varactor_Reference));

	ad9361_spi_write(spi, REG_RX_VCO_CAL_REF + offs, VCO_CAL_REF_TCF(0));
    1d6c:	e0bff717 	ldw	r2,-36(fp)
    1d70:	10809144 	addi	r2,r2,581
    1d74:	e13ff817 	ldw	r4,-32(fp)
    1d78:	100b883a 	mov	r5,r2
    1d7c:	000d883a 	mov	r6,zero
    1d80:	00002600 	call	260 <ad9361_spi_write>

	ad9361_spi_write(spi, REG_RX_VCO_VARACTOR_CTRL_0 + offs,
    1d84:	e0bff717 	ldw	r2,-36(fp)
    1d88:	10809404 	addi	r2,r2,592
    1d8c:	e13ff817 	ldw	r4,-32(fp)
    1d90:	100b883a 	mov	r5,r2
    1d94:	01801c04 	movi	r6,112
    1d98:	00002600 	call	260 <ad9361_spi_write>
		VCO_VARACTOR_OFFSET(0) |
		VCO_VARACTOR_REFERENCE_TCF(7));

	ad9361_spi_writef(spi, REG_RX_CP_CURRENT + offs, CHARGE_PUMP_CURRENT(~0),
    1d9c:	e0bff717 	ldw	r2,-36(fp)
    1da0:	14008ec4 	addi	r16,r2,571
    1da4:	01000fc4 	movi	r4,63
    1da8:	001c8300 	call	1c830 <find_first_bit>
    1dac:	100f883a 	mov	r7,r2
    1db0:	e0bff617 	ldw	r2,-40(fp)
    1db4:	108003a4 	muli	r2,r2,14
    1db8:	e0fff517 	ldw	r3,-44(fp)
    1dbc:	1885883a 	add	r2,r3,r2
    1dc0:	10800203 	ldbu	r2,8(r2)
    1dc4:	10803fcc 	andi	r2,r2,255
    1dc8:	d8800015 	stw	r2,0(sp)
    1dcc:	e13ff817 	ldw	r4,-32(fp)
    1dd0:	800b883a 	mov	r5,r16
    1dd4:	01800fc4 	movi	r6,63
    1dd8:	000031c0 	call	31c <__ad9361_spi_writef>
		tab[i].Charge_Pump_Current);
	ad9361_spi_write(spi, REG_RX_LOOP_FILTER_1 + offs,
    1ddc:	e0bff717 	ldw	r2,-36(fp)
    1de0:	11408f84 	addi	r5,r2,574
		LOOP_FILTER_C2(tab[i].LF_C2) |
    1de4:	e0bff617 	ldw	r2,-40(fp)
    1de8:	108003a4 	muli	r2,r2,14
    1dec:	e0fff517 	ldw	r3,-44(fp)
    1df0:	1885883a 	add	r2,r3,r2
    1df4:	10800243 	ldbu	r2,9(r2)
    1df8:	10803fcc 	andi	r2,r2,255
    1dfc:	1004913a 	slli	r2,r2,4
    1e00:	10c03fcc 	andi	r3,r2,255
		LOOP_FILTER_C1(tab[i].LF_C1));
    1e04:	e0bff617 	ldw	r2,-40(fp)
    1e08:	108003a4 	muli	r2,r2,14
    1e0c:	e13ff517 	ldw	r4,-44(fp)
    1e10:	2085883a 	add	r2,r4,r2
    1e14:	10800283 	ldbu	r2,10(r2)
    1e18:	10803fcc 	andi	r2,r2,255
    1e1c:	108003cc 	andi	r2,r2,15
		VCO_VARACTOR_REFERENCE_TCF(7));

	ad9361_spi_writef(spi, REG_RX_CP_CURRENT + offs, CHARGE_PUMP_CURRENT(~0),
		tab[i].Charge_Pump_Current);
	ad9361_spi_write(spi, REG_RX_LOOP_FILTER_1 + offs,
		LOOP_FILTER_C2(tab[i].LF_C2) |
    1e20:	1884b03a 	or	r2,r3,r2
		VCO_VARACTOR_OFFSET(0) |
		VCO_VARACTOR_REFERENCE_TCF(7));

	ad9361_spi_writef(spi, REG_RX_CP_CURRENT + offs, CHARGE_PUMP_CURRENT(~0),
		tab[i].Charge_Pump_Current);
	ad9361_spi_write(spi, REG_RX_LOOP_FILTER_1 + offs,
    1e24:	e13ff817 	ldw	r4,-32(fp)
    1e28:	100d883a 	mov	r6,r2
    1e2c:	00002600 	call	260 <ad9361_spi_write>
		LOOP_FILTER_C2(tab[i].LF_C2) |
		LOOP_FILTER_C1(tab[i].LF_C1));
	ad9361_spi_write(spi, REG_RX_LOOP_FILTER_2 + offs,
    1e30:	e0bff717 	ldw	r2,-36(fp)
    1e34:	11408fc4 	addi	r5,r2,575
		LOOP_FILTER_R1(tab[i].LF_R1) |
    1e38:	e0bff617 	ldw	r2,-40(fp)
    1e3c:	108003a4 	muli	r2,r2,14
    1e40:	e0fff517 	ldw	r3,-44(fp)
    1e44:	1885883a 	add	r2,r3,r2
    1e48:	108002c3 	ldbu	r2,11(r2)
    1e4c:	10803fcc 	andi	r2,r2,255
    1e50:	1004913a 	slli	r2,r2,4
    1e54:	10c03fcc 	andi	r3,r2,255
		LOOP_FILTER_C3(tab[i].LF_C3));
    1e58:	e0bff617 	ldw	r2,-40(fp)
    1e5c:	108003a4 	muli	r2,r2,14
    1e60:	e13ff517 	ldw	r4,-44(fp)
    1e64:	2085883a 	add	r2,r4,r2
    1e68:	10800303 	ldbu	r2,12(r2)
    1e6c:	10803fcc 	andi	r2,r2,255
    1e70:	108003cc 	andi	r2,r2,15
		tab[i].Charge_Pump_Current);
	ad9361_spi_write(spi, REG_RX_LOOP_FILTER_1 + offs,
		LOOP_FILTER_C2(tab[i].LF_C2) |
		LOOP_FILTER_C1(tab[i].LF_C1));
	ad9361_spi_write(spi, REG_RX_LOOP_FILTER_2 + offs,
		LOOP_FILTER_R1(tab[i].LF_R1) |
    1e74:	1884b03a 	or	r2,r3,r2
	ad9361_spi_writef(spi, REG_RX_CP_CURRENT + offs, CHARGE_PUMP_CURRENT(~0),
		tab[i].Charge_Pump_Current);
	ad9361_spi_write(spi, REG_RX_LOOP_FILTER_1 + offs,
		LOOP_FILTER_C2(tab[i].LF_C2) |
		LOOP_FILTER_C1(tab[i].LF_C1));
	ad9361_spi_write(spi, REG_RX_LOOP_FILTER_2 + offs,
    1e78:	e13ff817 	ldw	r4,-32(fp)
    1e7c:	100d883a 	mov	r6,r2
    1e80:	00002600 	call	260 <ad9361_spi_write>
		LOOP_FILTER_R1(tab[i].LF_R1) |
		LOOP_FILTER_C3(tab[i].LF_C3));
	ad9361_spi_write(spi, REG_RX_LOOP_FILTER_3 + offs,
    1e84:	e0bff717 	ldw	r2,-36(fp)
    1e88:	11409004 	addi	r5,r2,576
		LOOP_FILTER_R3(tab[i].LF_R3));
    1e8c:	e0bff617 	ldw	r2,-40(fp)
    1e90:	108003a4 	muli	r2,r2,14
    1e94:	e0fff517 	ldw	r3,-44(fp)
    1e98:	1885883a 	add	r2,r3,r2
    1e9c:	10800343 	ldbu	r2,13(r2)
		LOOP_FILTER_C2(tab[i].LF_C2) |
		LOOP_FILTER_C1(tab[i].LF_C1));
	ad9361_spi_write(spi, REG_RX_LOOP_FILTER_2 + offs,
		LOOP_FILTER_R1(tab[i].LF_R1) |
		LOOP_FILTER_C3(tab[i].LF_C3));
	ad9361_spi_write(spi, REG_RX_LOOP_FILTER_3 + offs,
    1ea0:	10803fcc 	andi	r2,r2,255
    1ea4:	108003cc 	andi	r2,r2,15
    1ea8:	e13ff817 	ldw	r4,-32(fp)
    1eac:	100d883a 	mov	r6,r2
    1eb0:	00002600 	call	260 <ad9361_spi_write>
		LOOP_FILTER_R3(tab[i].LF_R3));

	return 0;
    1eb4:	0005883a 	mov	r2,zero
}
    1eb8:	e6fffe04 	addi	sp,fp,-8
    1ebc:	dfc00317 	ldw	ra,12(sp)
    1ec0:	df000217 	ldw	fp,8(sp)
    1ec4:	dc400117 	ldw	r17,4(sp)
    1ec8:	dc000017 	ldw	r16,0(sp)
    1ecc:	dec00404 	addi	sp,sp,16
    1ed0:	f800283a 	ret

00001ed4 <ad9361_get_split_table_gain>:
 * @param rx_gain  A rf_rx_gain struct to store the RF gain.
 * @return 0 in case of success,
 */
static int32_t ad9361_get_split_table_gain(struct ad9361_rf_phy *phy, uint32_t idx_reg,
struct rf_rx_gain *rx_gain)
{
    1ed4:	defff604 	addi	sp,sp,-40
    1ed8:	de00012e 	bgeu	sp,et,1ee0 <ad9361_get_split_table_gain+0xc>
    1edc:	003b68fa 	trap	3
    1ee0:	dfc00915 	stw	ra,36(sp)
    1ee4:	df000815 	stw	fp,32(sp)
    1ee8:	dc000715 	stw	r16,28(sp)
    1eec:	df000804 	addi	fp,sp,32
    1ef0:	e13ffc15 	stw	r4,-16(fp)
    1ef4:	e17ffd15 	stw	r5,-12(fp)
    1ef8:	e1bffe15 	stw	r6,-8(fp)
	struct spi_device *spi = phy->spi;
    1efc:	e0bffc17 	ldw	r2,-16(fp)
    1f00:	10800117 	ldw	r2,4(r2)
    1f04:	e0bff815 	stw	r2,-32(fp)
	uint32_t val, tbl_addr;
	int32_t rc = 0;
    1f08:	e03ff915 	stw	zero,-28(fp)

	rx_gain->fgt_lmt_index = ad9361_spi_readf(spi, idx_reg,
    1f0c:	01001fc4 	movi	r4,127
    1f10:	001c8300 	call	1c830 <find_first_bit>
    1f14:	e13ff817 	ldw	r4,-32(fp)
    1f18:	e17ffd17 	ldw	r5,-12(fp)
    1f1c:	01801fc4 	movi	r6,127
    1f20:	100f883a 	mov	r7,r2
    1f24:	00001b80 	call	1b8 <__ad9361_spi_readf>
    1f28:	1007883a 	mov	r3,r2
    1f2c:	e0bffe17 	ldw	r2,-8(fp)
    1f30:	10c00215 	stw	r3,8(r2)
		FULL_TABLE_GAIN_INDEX(~0));
	tbl_addr = ad9361_spi_read(spi, REG_GAIN_TABLE_ADDRESS);
    1f34:	e13ff817 	ldw	r4,-32(fp)
    1f38:	01404c04 	movi	r5,304
    1f3c:	00001500 	call	150 <ad9361_spi_read>
    1f40:	e0bffa15 	stw	r2,-24(fp)

	ad9361_spi_write(spi, REG_GAIN_TABLE_ADDRESS, rx_gain->fgt_lmt_index);
    1f44:	e0bffe17 	ldw	r2,-8(fp)
    1f48:	10800217 	ldw	r2,8(r2)
    1f4c:	e13ff817 	ldw	r4,-32(fp)
    1f50:	01404c04 	movi	r5,304
    1f54:	100d883a 	mov	r6,r2
    1f58:	00002600 	call	260 <ad9361_spi_write>

	val = ad9361_spi_read(spi, REG_GAIN_TABLE_READ_DATA1);
    1f5c:	e13ff817 	ldw	r4,-32(fp)
    1f60:	01404d04 	movi	r5,308
    1f64:	00001500 	call	150 <ad9361_spi_read>
    1f68:	e0bffb15 	stw	r2,-20(fp)
	rx_gain->lna_index = TO_LNA_GAIN(val);
    1f6c:	e0bffb17 	ldw	r2,-20(fp)
    1f70:	1004d17a 	srli	r2,r2,5
    1f74:	10c000cc 	andi	r3,r2,3
    1f78:	e0bffe17 	ldw	r2,-8(fp)
    1f7c:	10c00615 	stw	r3,24(r2)
	rx_gain->mixer_index = TO_MIXER_GM_GAIN(val);
    1f80:	e0bffb17 	ldw	r2,-20(fp)
    1f84:	10c007cc 	andi	r3,r2,31
    1f88:	e0bffe17 	ldw	r2,-8(fp)
    1f8c:	10c00815 	stw	r3,32(r2)

	rx_gain->tia_index = ad9361_spi_readf(spi, REG_GAIN_TABLE_READ_DATA2, TIA_GAIN);
    1f90:	01000804 	movi	r4,32
    1f94:	001c8300 	call	1c830 <find_first_bit>
    1f98:	e13ff817 	ldw	r4,-32(fp)
    1f9c:	01404d44 	movi	r5,309
    1fa0:	01800804 	movi	r6,32
    1fa4:	100f883a 	mov	r7,r2
    1fa8:	00001b80 	call	1b8 <__ad9361_spi_readf>
    1fac:	1007883a 	mov	r3,r2
    1fb0:	e0bffe17 	ldw	r2,-8(fp)
    1fb4:	10c00715 	stw	r3,28(r2)

	rx_gain->lmt_gain = lna_table[phy->current_table][rx_gain->lna_index] +
    1fb8:	e0bffc17 	ldw	r2,-16(fp)
    1fbc:	10c04417 	ldw	r3,272(r2)
    1fc0:	e0bffe17 	ldw	r2,-8(fp)
    1fc4:	11000617 	ldw	r4,24(r2)
    1fc8:	008000b4 	movhi	r2,2
    1fcc:	109a3c84 	addi	r2,r2,26866
    1fd0:	18c7883a 	add	r3,r3,r3
    1fd4:	18c7883a 	add	r3,r3,r3
    1fd8:	1907883a 	add	r3,r3,r4
    1fdc:	10c5883a 	add	r2,r2,r3
    1fe0:	10800003 	ldbu	r2,0(r2)
    1fe4:	10c03fcc 	andi	r3,r2,255
    1fe8:	18c0201c 	xori	r3,r3,128
    1fec:	18ffe004 	addi	r3,r3,-128
		mixer_table[phy->current_table][rx_gain->mixer_index] +
    1ff0:	e0bffc17 	ldw	r2,-16(fp)
    1ff4:	11404417 	ldw	r5,272(r2)
    1ff8:	e0bffe17 	ldw	r2,-8(fp)
    1ffc:	11000817 	ldw	r4,32(r2)
    2000:	008000b4 	movhi	r2,2
    2004:	109a3f84 	addi	r2,r2,26878
    2008:	280a913a 	slli	r5,r5,4
    200c:	2909883a 	add	r4,r5,r4
    2010:	1105883a 	add	r2,r2,r4
    2014:	10800003 	ldbu	r2,0(r2)
	rx_gain->lna_index = TO_LNA_GAIN(val);
	rx_gain->mixer_index = TO_MIXER_GM_GAIN(val);

	rx_gain->tia_index = ad9361_spi_readf(spi, REG_GAIN_TABLE_READ_DATA2, TIA_GAIN);

	rx_gain->lmt_gain = lna_table[phy->current_table][rx_gain->lna_index] +
    2018:	10803fcc 	andi	r2,r2,255
    201c:	1080201c 	xori	r2,r2,128
    2020:	10bfe004 	addi	r2,r2,-128
    2024:	1887883a 	add	r3,r3,r2
		mixer_table[phy->current_table][rx_gain->mixer_index] +
		tia_table[rx_gain->tia_index];
    2028:	e0bffe17 	ldw	r2,-8(fp)
    202c:	11000717 	ldw	r4,28(r2)
    2030:	d0a00184 	addi	r2,gp,-32762
    2034:	2085883a 	add	r2,r4,r2
    2038:	10800003 	ldbu	r2,0(r2)
	rx_gain->mixer_index = TO_MIXER_GM_GAIN(val);

	rx_gain->tia_index = ad9361_spi_readf(spi, REG_GAIN_TABLE_READ_DATA2, TIA_GAIN);

	rx_gain->lmt_gain = lna_table[phy->current_table][rx_gain->lna_index] +
		mixer_table[phy->current_table][rx_gain->mixer_index] +
    203c:	10803fcc 	andi	r2,r2,255
    2040:	1080201c 	xori	r2,r2,128
    2044:	10bfe004 	addi	r2,r2,-128
    2048:	1885883a 	add	r2,r3,r2
	rx_gain->lna_index = TO_LNA_GAIN(val);
	rx_gain->mixer_index = TO_MIXER_GM_GAIN(val);

	rx_gain->tia_index = ad9361_spi_readf(spi, REG_GAIN_TABLE_READ_DATA2, TIA_GAIN);

	rx_gain->lmt_gain = lna_table[phy->current_table][rx_gain->lna_index] +
    204c:	1007883a 	mov	r3,r2
    2050:	e0bffe17 	ldw	r2,-8(fp)
    2054:	10c00315 	stw	r3,12(r2)
		mixer_table[phy->current_table][rx_gain->mixer_index] +
		tia_table[rx_gain->tia_index];

	ad9361_spi_write(spi, REG_GAIN_TABLE_ADDRESS, tbl_addr);
    2058:	e13ff817 	ldw	r4,-32(fp)
    205c:	01404c04 	movi	r5,304
    2060:	e1bffa17 	ldw	r6,-24(fp)
    2064:	00002600 	call	260 <ad9361_spi_write>

	/* Read LPF Index */
	rx_gain->lpf_gain = ad9361_spi_readf(spi, idx_reg + 1, LPF_GAIN_RX(~0));
    2068:	e0bffd17 	ldw	r2,-12(fp)
    206c:	14000044 	addi	r16,r2,1
    2070:	010007c4 	movi	r4,31
    2074:	001c8300 	call	1c830 <find_first_bit>
    2078:	e13ff817 	ldw	r4,-32(fp)
    207c:	800b883a 	mov	r5,r16
    2080:	018007c4 	movi	r6,31
    2084:	100f883a 	mov	r7,r2
    2088:	00001b80 	call	1b8 <__ad9361_spi_readf>
    208c:	1007883a 	mov	r3,r2
    2090:	e0bffe17 	ldw	r2,-8(fp)
    2094:	10c00415 	stw	r3,16(r2)

	/* Read Digital Gain */
	rx_gain->digital_gain = ad9361_spi_readf(spi, idx_reg + 2,
    2098:	e0bffd17 	ldw	r2,-12(fp)
    209c:	14000084 	addi	r16,r2,2
    20a0:	010007c4 	movi	r4,31
    20a4:	001c8300 	call	1c830 <find_first_bit>
    20a8:	e13ff817 	ldw	r4,-32(fp)
    20ac:	800b883a 	mov	r5,r16
    20b0:	018007c4 	movi	r6,31
    20b4:	100f883a 	mov	r7,r2
    20b8:	00001b80 	call	1b8 <__ad9361_spi_readf>
    20bc:	1007883a 	mov	r3,r2
    20c0:	e0bffe17 	ldw	r2,-8(fp)
    20c4:	10c00515 	stw	r3,20(r2)
		DIGITAL_GAIN_RX(~0));

	rx_gain->gain_db = rx_gain->lmt_gain + rx_gain->lpf_gain +
    20c8:	e0bffe17 	ldw	r2,-8(fp)
    20cc:	10c00317 	ldw	r3,12(r2)
    20d0:	e0bffe17 	ldw	r2,-8(fp)
    20d4:	10800417 	ldw	r2,16(r2)
    20d8:	1887883a 	add	r3,r3,r2
		rx_gain->digital_gain;
    20dc:	e0bffe17 	ldw	r2,-8(fp)
    20e0:	10800517 	ldw	r2,20(r2)

	/* Read Digital Gain */
	rx_gain->digital_gain = ad9361_spi_readf(spi, idx_reg + 2,
		DIGITAL_GAIN_RX(~0));

	rx_gain->gain_db = rx_gain->lmt_gain + rx_gain->lpf_gain +
    20e4:	1885883a 	add	r2,r3,r2
    20e8:	1007883a 	mov	r3,r2
    20ec:	e0bffe17 	ldw	r2,-8(fp)
    20f0:	10c00115 	stw	r3,4(r2)
		rx_gain->digital_gain;
	return rc;
    20f4:	e0bff917 	ldw	r2,-28(fp)
}
    20f8:	e6ffff04 	addi	sp,fp,-4
    20fc:	dfc00217 	ldw	ra,8(sp)
    2100:	df000117 	ldw	fp,4(sp)
    2104:	dc000017 	ldw	r16,0(sp)
    2108:	dec00304 	addi	sp,sp,12
    210c:	f800283a 	ret

00002110 <ad9361_get_full_table_gain>:
 * @param rx_gain A rf_rx_gain struct to store the RF gain.
 * @return 0 in case of success
 */
static int32_t ad9361_get_full_table_gain(struct ad9361_rf_phy *phy, uint32_t idx_reg,
struct rf_rx_gain *rx_gain)
{
    2110:	defff404 	addi	sp,sp,-48
    2114:	de00012e 	bgeu	sp,et,211c <ad9361_get_full_table_gain+0xc>
    2118:	003b68fa 	trap	3
    211c:	dfc00b15 	stw	ra,44(sp)
    2120:	df000a15 	stw	fp,40(sp)
    2124:	dc000915 	stw	r16,36(sp)
    2128:	df000a04 	addi	fp,sp,40
    212c:	e13ffc15 	stw	r4,-16(fp)
    2130:	e17ffd15 	stw	r5,-12(fp)
    2134:	e1bffe15 	stw	r6,-8(fp)
	struct spi_device *spi = phy->spi;
    2138:	e0bffc17 	ldw	r2,-16(fp)
    213c:	10800117 	ldw	r2,4(r2)
    2140:	e0bff715 	stw	r2,-36(fp)
	int32_t val;
	enum rx_gain_table_name tbl;
	struct rx_gain_info *gain_info;
	int32_t rc = 0, rx_gain_db;
    2144:	e03ff815 	stw	zero,-32(fp)

	tbl = ad9361_gt_tableindex(
    2148:	e0bffc17 	ldw	r2,-16(fp)
    214c:	10802917 	ldw	r2,164(r2)
    2150:	e13ffc17 	ldw	r4,-16(fp)
    2154:	100b883a 	mov	r5,r2
    2158:	001bc900 	call	1bc90 <clk_get_rate>
    215c:	1009883a 	mov	r4,r2
    2160:	00010f00 	call	10f0 <ad9361_from_clk>
    2164:	100b883a 	mov	r5,r2
    2168:	180d883a 	mov	r6,r3
    216c:	2809883a 	mov	r4,r5
    2170:	300b883a 	mov	r5,r6
    2174:	00010280 	call	1028 <ad9361_gt_tableindex>
    2178:	e0bff915 	stw	r2,-28(fp)
		ad9361_from_clk(clk_get_rate(phy, phy->ref_clk_scale[RX_RFPLL])));

	rx_gain->fgt_lmt_index = val = ad9361_spi_readf(spi, idx_reg,
    217c:	01001fc4 	movi	r4,127
    2180:	001c8300 	call	1c830 <find_first_bit>
    2184:	e13ff717 	ldw	r4,-36(fp)
    2188:	e17ffd17 	ldw	r5,-12(fp)
    218c:	01801fc4 	movi	r6,127
    2190:	100f883a 	mov	r7,r2
    2194:	00001b80 	call	1b8 <__ad9361_spi_readf>
    2198:	e0bffa15 	stw	r2,-24(fp)
    219c:	e0fffa17 	ldw	r3,-24(fp)
    21a0:	e0bffe17 	ldw	r2,-8(fp)
    21a4:	10c00215 	stw	r3,8(r2)
		FULL_TABLE_GAIN_INDEX(~0));
	gain_info = &phy->rx_gain[tbl];
    21a8:	e0bff917 	ldw	r2,-28(fp)
    21ac:	10800624 	muli	r2,r2,24
    21b0:	10803204 	addi	r2,r2,200
    21b4:	e0fffc17 	ldw	r3,-16(fp)
    21b8:	1885883a 	add	r2,r3,r2
    21bc:	e0bffb15 	stw	r2,-20(fp)
	if (val > gain_info->idx_step_offset) {
    21c0:	e0bffb17 	ldw	r2,-20(fp)
    21c4:	10c00517 	ldw	r3,20(r2)
    21c8:	e0bffa17 	ldw	r2,-24(fp)
    21cc:	18800e0e 	bge	r3,r2,2208 <ad9361_get_full_table_gain+0xf8>
		val = val - gain_info->idx_step_offset;
    21d0:	e0bffb17 	ldw	r2,-20(fp)
    21d4:	10800517 	ldw	r2,20(r2)
    21d8:	e0fffa17 	ldw	r3,-24(fp)
    21dc:	1885c83a 	sub	r2,r3,r2
    21e0:	e0bffa15 	stw	r2,-24(fp)
		rx_gain_db = gain_info->starting_gain_db +
    21e4:	e0bffb17 	ldw	r2,-20(fp)
    21e8:	10c00117 	ldw	r3,4(r2)
			((val)* gain_info->gain_step_db);
    21ec:	e0bffb17 	ldw	r2,-20(fp)
    21f0:	11000317 	ldw	r4,12(r2)
    21f4:	e0bffa17 	ldw	r2,-24(fp)
    21f8:	2085383a 	mul	r2,r4,r2
	rx_gain->fgt_lmt_index = val = ad9361_spi_readf(spi, idx_reg,
		FULL_TABLE_GAIN_INDEX(~0));
	gain_info = &phy->rx_gain[tbl];
	if (val > gain_info->idx_step_offset) {
		val = val - gain_info->idx_step_offset;
		rx_gain_db = gain_info->starting_gain_db +
    21fc:	1885883a 	add	r2,r3,r2
    2200:	e0bff615 	stw	r2,-40(fp)
    2204:	00000306 	br	2214 <ad9361_get_full_table_gain+0x104>
			((val)* gain_info->gain_step_db);
	}
	else {
		rx_gain_db = gain_info->starting_gain_db;
    2208:	e0bffb17 	ldw	r2,-20(fp)
    220c:	10800117 	ldw	r2,4(r2)
    2210:	e0bff615 	stw	r2,-40(fp)
	}

	/* Read Digital Gain */
	rx_gain->digital_gain = ad9361_spi_readf(spi, idx_reg + 2,
    2214:	e0bffd17 	ldw	r2,-12(fp)
    2218:	14000084 	addi	r16,r2,2
    221c:	010007c4 	movi	r4,31
    2220:	001c8300 	call	1c830 <find_first_bit>
    2224:	e13ff717 	ldw	r4,-36(fp)
    2228:	800b883a 	mov	r5,r16
    222c:	018007c4 	movi	r6,31
    2230:	100f883a 	mov	r7,r2
    2234:	00001b80 	call	1b8 <__ad9361_spi_readf>
    2238:	1007883a 	mov	r3,r2
    223c:	e0bffe17 	ldw	r2,-8(fp)
    2240:	10c00515 	stw	r3,20(r2)
		DIGITAL_GAIN_RX(~0));

	rx_gain->gain_db = rx_gain_db;
    2244:	e0bffe17 	ldw	r2,-8(fp)
    2248:	e0fff617 	ldw	r3,-40(fp)
    224c:	10c00115 	stw	r3,4(r2)

	return rc;
    2250:	e0bff817 	ldw	r2,-32(fp)
}
    2254:	e6ffff04 	addi	sp,fp,-4
    2258:	dfc00217 	ldw	ra,8(sp)
    225c:	df000117 	ldw	fp,4(sp)
    2260:	dc000017 	ldw	r16,0(sp)
    2264:	dec00304 	addi	sp,sp,12
    2268:	f800283a 	ret

0000226c <ad9361_get_rx_gain>:
 * @param rx_gain A rf_rx_gain struct to store the RF gain.
 * @return 0 in case of success, negative error code otherwise.
 */
int32_t ad9361_get_rx_gain(struct ad9361_rf_phy *phy,
	uint32_t rx_id, struct rf_rx_gain *rx_gain)
{
    226c:	defff504 	addi	sp,sp,-44
    2270:	de00012e 	bgeu	sp,et,2278 <ad9361_get_rx_gain+0xc>
    2274:	003b68fa 	trap	3
    2278:	dfc00a15 	stw	ra,40(sp)
    227c:	df000915 	stw	fp,36(sp)
    2280:	dc000815 	stw	r16,32(sp)
    2284:	df000904 	addi	fp,sp,36
    2288:	e13ffc15 	stw	r4,-16(fp)
    228c:	e17ffd15 	stw	r5,-12(fp)
    2290:	e1bffe15 	stw	r6,-8(fp)
	struct spi_device *spi = phy->spi;
    2294:	e0bffc17 	ldw	r2,-16(fp)
    2298:	10800117 	ldw	r2,4(r2)
    229c:	e0bffa15 	stw	r2,-24(fp)
	uint32_t val, idx_reg;
	uint8_t gain_ctl_shift, rx_enable_mask;
	uint8_t fast_atk_shift;
	int32_t rc = 0;
    22a0:	e03ff915 	stw	zero,-28(fp)

	if (rx_id == 1) {
    22a4:	e0bffd17 	ldw	r2,-12(fp)
    22a8:	10800058 	cmpnei	r2,r2,1
    22ac:	1000071e 	bne	r2,zero,22cc <ad9361_get_rx_gain+0x60>
		gain_ctl_shift = RX1_GAIN_CTRL_SHIFT;
    22b0:	e03ff805 	stb	zero,-32(fp)
		idx_reg = REG_GAIN_RX1;
    22b4:	0080ac04 	movi	r2,688
    22b8:	e0bff715 	stw	r2,-36(fp)
		rx_enable_mask = RX_CHANNEL_ENABLE(RX_1);
    22bc:	00801004 	movi	r2,64
    22c0:	e0bff845 	stb	r2,-31(fp)
		fast_atk_shift = RX1_FAST_ATK_SHIFT;
    22c4:	e03ff885 	stb	zero,-30(fp)
    22c8:	00001606 	br	2324 <ad9361_get_rx_gain+0xb8>

	}
	else if (rx_id == 2) {
    22cc:	e0bffd17 	ldw	r2,-12(fp)
    22d0:	10800098 	cmpnei	r2,r2,2
    22d4:	1000091e 	bne	r2,zero,22fc <ad9361_get_rx_gain+0x90>
		gain_ctl_shift = RX2_GAIN_CTRL_SHIFT;
    22d8:	00800084 	movi	r2,2
    22dc:	e0bff805 	stb	r2,-32(fp)
		idx_reg = REG_GAIN_RX2;
    22e0:	0080ad44 	movi	r2,693
    22e4:	e0bff715 	stw	r2,-36(fp)
		rx_enable_mask = RX_CHANNEL_ENABLE(RX_2);
    22e8:	00bfe004 	movi	r2,-128
    22ec:	e0bff845 	stb	r2,-31(fp)
		fast_atk_shift = RX2_FAST_ATK_SHIFT;
    22f0:	00800104 	movi	r2,4
    22f4:	e0bff885 	stb	r2,-30(fp)
    22f8:	00000a06 	br	2324 <ad9361_get_rx_gain+0xb8>
	}
	else {
		dev_err(dev, "Unknown Rx path %"PRIu32, rx_id);
    22fc:	010000b4 	movhi	r4,2
    2300:	211acb04 	addi	r4,r4,27436
    2304:	e17ffd17 	ldw	r5,-12(fp)
    2308:	001f8180 	call	1f818 <printf>
    230c:	010000b4 	movhi	r4,2
    2310:	211a7504 	addi	r4,r4,27092
    2314:	001f8180 	call	1f818 <printf>
		rc = -EINVAL;
    2318:	00bffa84 	movi	r2,-22
    231c:	e0bff915 	stw	r2,-28(fp)
		goto out;
    2320:	00004d06 	br	2458 <ad9361_get_rx_gain+0x1ec>
	}

	val = ad9361_spi_readf(spi, REG_RX_ENABLE_FILTER_CTRL, rx_enable_mask);
    2324:	e43ff843 	ldbu	r16,-31(fp)
    2328:	e0bff843 	ldbu	r2,-31(fp)
    232c:	1009883a 	mov	r4,r2
    2330:	001c8300 	call	1c830 <find_first_bit>
    2334:	e13ffa17 	ldw	r4,-24(fp)
    2338:	014000c4 	movi	r5,3
    233c:	800d883a 	mov	r6,r16
    2340:	100f883a 	mov	r7,r2
    2344:	00001b80 	call	1b8 <__ad9361_spi_readf>
    2348:	e0bffb15 	stw	r2,-20(fp)

	if (!val) {
    234c:	e0bffb17 	ldw	r2,-20(fp)
    2350:	10000c1e 	bne	r2,zero,2384 <ad9361_get_rx_gain+0x118>
		dev_dbg(dev, "Rx%"PRIu32" is not enabled", rx_gain->ant);
    2354:	e0bffe17 	ldw	r2,-8(fp)
    2358:	10800017 	ldw	r2,0(r2)
    235c:	010000b4 	movhi	r4,2
    2360:	211ad004 	addi	r4,r4,27456
    2364:	100b883a 	mov	r5,r2
    2368:	001f8180 	call	1f818 <printf>
    236c:	010000b4 	movhi	r4,2
    2370:	211a7504 	addi	r4,r4,27092
    2374:	001f8180 	call	1f818 <printf>
		rc = -EAGAIN;
    2378:	00bffd44 	movi	r2,-11
    237c:	e0bff915 	stw	r2,-28(fp)
		goto out;
    2380:	00003506 	br	2458 <ad9361_get_rx_gain+0x1ec>
	}

	val = ad9361_spi_read(spi, REG_AGC_CONFIG_1);
    2384:	e13ffa17 	ldw	r4,-24(fp)
    2388:	01403e84 	movi	r5,250
    238c:	00001500 	call	150 <ad9361_spi_read>
    2390:	e0bffb15 	stw	r2,-20(fp)

	val = (val >> gain_ctl_shift) & RX_GAIN_CTL_MASK;
    2394:	e0bff803 	ldbu	r2,-32(fp)
    2398:	e0fffb17 	ldw	r3,-20(fp)
    239c:	1884d83a 	srl	r2,r3,r2
    23a0:	108000cc 	andi	r2,r2,3
    23a4:	e0bffb15 	stw	r2,-20(fp)

	if (val == RX_GAIN_CTL_AGC_FAST_ATK) {
    23a8:	e0bffb17 	ldw	r2,-20(fp)
    23ac:	10800058 	cmpnei	r2,r2,1
    23b0:	1000161e 	bne	r2,zero,240c <ad9361_get_rx_gain+0x1a0>
		/* In fast attack mode check whether Fast attack state machine
		* has locked gain, if not then we can not read gain.
		*/
		val = ad9361_spi_read(spi, REG_FAST_ATTACK_STATE);
    23b4:	e13ffa17 	ldw	r4,-24(fp)
    23b8:	0140acc4 	movi	r5,691
    23bc:	00001500 	call	150 <ad9361_spi_read>
    23c0:	e0bffb15 	stw	r2,-20(fp)
		val = (val >> fast_atk_shift) & FAST_ATK_MASK;
    23c4:	e0bff883 	ldbu	r2,-30(fp)
    23c8:	e0fffb17 	ldw	r3,-20(fp)
    23cc:	1884d83a 	srl	r2,r3,r2
    23d0:	108001cc 	andi	r2,r2,7
    23d4:	e0bffb15 	stw	r2,-20(fp)
		if (val != FAST_ATK_GAIN_LOCKED) {
    23d8:	e0bffb17 	ldw	r2,-20(fp)
    23dc:	10800160 	cmpeqi	r2,r2,5
    23e0:	10000a1e 	bne	r2,zero,240c <ad9361_get_rx_gain+0x1a0>
			dev_warn(dev, "Failed to read gain, state m/c at %"PRIx32,
    23e4:	010000b4 	movhi	r4,2
    23e8:	211ad604 	addi	r4,r4,27480
    23ec:	e17ffb17 	ldw	r5,-20(fp)
    23f0:	001f8180 	call	1f818 <printf>
    23f4:	010000b4 	movhi	r4,2
    23f8:	211a7504 	addi	r4,r4,27092
    23fc:	001f8180 	call	1f818 <printf>
				val);
			rc = -EAGAIN;
    2400:	00bffd44 	movi	r2,-11
    2404:	e0bff915 	stw	r2,-28(fp)
			goto out;
    2408:	00001306 	br	2458 <ad9361_get_rx_gain+0x1ec>
		}
	}

	if (has_split_gt && phy->pdata->split_gt)
    240c:	00800044 	movi	r2,1
    2410:	10803fcc 	andi	r2,r2,255
    2414:	10000b26 	beq	r2,zero,2444 <ad9361_get_rx_gain+0x1d8>
    2418:	e0bffc17 	ldw	r2,-16(fp)
    241c:	10803017 	ldw	r2,192(r2)
    2420:	108000c3 	ldbu	r2,3(r2)
    2424:	10803fcc 	andi	r2,r2,255
    2428:	10000626 	beq	r2,zero,2444 <ad9361_get_rx_gain+0x1d8>
		rc = ad9361_get_split_table_gain(phy, idx_reg, rx_gain);
    242c:	e13ffc17 	ldw	r4,-16(fp)
    2430:	e17ff717 	ldw	r5,-36(fp)
    2434:	e1bffe17 	ldw	r6,-8(fp)
    2438:	0001ed40 	call	1ed4 <ad9361_get_split_table_gain>
    243c:	e0bff915 	stw	r2,-28(fp)
    2440:	00000506 	br	2458 <ad9361_get_rx_gain+0x1ec>
	else
		rc = ad9361_get_full_table_gain(phy, idx_reg, rx_gain);
    2444:	e13ffc17 	ldw	r4,-16(fp)
    2448:	e17ff717 	ldw	r5,-36(fp)
    244c:	e1bffe17 	ldw	r6,-8(fp)
    2450:	00021100 	call	2110 <ad9361_get_full_table_gain>
    2454:	e0bff915 	stw	r2,-28(fp)

out:
	return rc;
    2458:	e0bff917 	ldw	r2,-28(fp)
}
    245c:	e6ffff04 	addi	sp,fp,-4
    2460:	dfc00217 	ldw	ra,8(sp)
    2464:	df000117 	ldw	fp,4(sp)
    2468:	dc000017 	ldw	r16,0(sp)
    246c:	dec00304 	addi	sp,sp,12
    2470:	f800283a 	ret

00002474 <ad9361_ensm_force_state>:
 *                   ENSM_STATE_TX, ENSM_STATE_TX_FLUSH, ENSM_STATE_RX,
 *                   ENSM_STATE_RX_FLUSH, ENSM_STATE_FDD, ENSM_STATE_FDD_FLUSH].
 * @return None.
 */
void ad9361_ensm_force_state(struct ad9361_rf_phy *phy, uint8_t ensm_state)
{
    2474:	defff804 	addi	sp,sp,-32
    2478:	de00012e 	bgeu	sp,et,2480 <ad9361_ensm_force_state+0xc>
    247c:	003b68fa 	trap	3
    2480:	dfc00715 	stw	ra,28(sp)
    2484:	df000615 	stw	fp,24(sp)
    2488:	df000604 	addi	fp,sp,24
    248c:	e13ffe15 	stw	r4,-8(fp)
    2490:	2805883a 	mov	r2,r5
    2494:	e0bfff05 	stb	r2,-4(fp)
	struct spi_device *spi = phy->spi;
    2498:	e0bffe17 	ldw	r2,-8(fp)
    249c:	10800117 	ldw	r2,4(r2)
    24a0:	e0bffb15 	stw	r2,-20(fp)
	uint8_t dev_ensm_state;
	int32_t rc;
	uint32_t val;

	dev_ensm_state = ad9361_spi_readf(spi, REG_STATE, ENSM_STATE(~0));
    24a4:	010003c4 	movi	r4,15
    24a8:	001c8300 	call	1c830 <find_first_bit>
    24ac:	e13ffb17 	ldw	r4,-20(fp)
    24b0:	014005c4 	movi	r5,23
    24b4:	018003c4 	movi	r6,15
    24b8:	100f883a 	mov	r7,r2
    24bc:	00001b80 	call	1b8 <__ad9361_spi_readf>
    24c0:	e0bffc05 	stb	r2,-16(fp)

	phy->prev_ensm_state = dev_ensm_state;
    24c4:	e0bffe17 	ldw	r2,-8(fp)
    24c8:	e0fffc03 	ldbu	r3,-16(fp)
    24cc:	10c03105 	stb	r3,196(r2)

	if (dev_ensm_state == ensm_state) {
    24d0:	e0fffc03 	ldbu	r3,-16(fp)
    24d4:	e0bfff03 	ldbu	r2,-4(fp)
    24d8:	1880091e 	bne	r3,r2,2500 <ad9361_ensm_force_state+0x8c>
		dev_dbg(dev, "Nothing to do, device is already in %d state",
    24dc:	e0bfff03 	ldbu	r2,-4(fp)
    24e0:	010000b4 	movhi	r4,2
    24e4:	211ae004 	addi	r4,r4,27520
    24e8:	100b883a 	mov	r5,r2
    24ec:	001f8180 	call	1f818 <printf>
    24f0:	010000b4 	movhi	r4,2
    24f4:	211a7504 	addi	r4,r4,27092
    24f8:	001f8180 	call	1f818 <printf>
			ensm_state);
		goto out;
    24fc:	00005706 	br	265c <ad9361_ensm_force_state+0x1e8>
	}

	dev_dbg(dev, "Device is in %x state, forcing to %x", dev_ensm_state,
    2500:	e0fffc03 	ldbu	r3,-16(fp)
    2504:	e0bfff03 	ldbu	r2,-4(fp)
    2508:	010000b4 	movhi	r4,2
    250c:	211aec04 	addi	r4,r4,27568
    2510:	180b883a 	mov	r5,r3
    2514:	100d883a 	mov	r6,r2
    2518:	001f8180 	call	1f818 <printf>
    251c:	010000b4 	movhi	r4,2
    2520:	211a7504 	addi	r4,r4,27092
    2524:	001f8180 	call	1f818 <printf>
		ensm_state);

	val = ad9361_spi_read(spi, REG_ENSM_CONFIG_1);
    2528:	e13ffb17 	ldw	r4,-20(fp)
    252c:	01400504 	movi	r5,20
    2530:	00001500 	call	150 <ad9361_spi_read>
    2534:	e0bffa15 	stw	r2,-24(fp)

	/* Enable control through SPI writes, and take out from
	* Alert
	*/
	if (val & ENABLE_ENSM_PIN_CTRL) {
    2538:	e0bffa17 	ldw	r2,-24(fp)
    253c:	1080040c 	andi	r2,r2,16
    2540:	10000826 	beq	r2,zero,2564 <ad9361_ensm_force_state+0xf0>
		val &= ~ENABLE_ENSM_PIN_CTRL;
    2544:	e0fffa17 	ldw	r3,-24(fp)
    2548:	00bffbc4 	movi	r2,-17
    254c:	1884703a 	and	r2,r3,r2
    2550:	e0bffa15 	stw	r2,-24(fp)
		phy->ensm_pin_ctl_en = true;
    2554:	e0bffe17 	ldw	r2,-8(fp)
    2558:	00c00044 	movi	r3,1
    255c:	10c04505 	stb	r3,276(r2)
    2560:	00000206 	br	256c <ad9361_ensm_force_state+0xf8>
	}
	else {
		phy->ensm_pin_ctl_en = false;
    2564:	e0bffe17 	ldw	r2,-8(fp)
    2568:	10004505 	stb	zero,276(r2)
	}

	if (dev_ensm_state)
    256c:	e0bffc03 	ldbu	r2,-16(fp)
    2570:	10000426 	beq	r2,zero,2584 <ad9361_ensm_force_state+0x110>
		val &= ~(TO_ALERT);
    2574:	e0fffa17 	ldw	r3,-24(fp)
    2578:	00bfff84 	movi	r2,-2
    257c:	1884703a 	and	r2,r3,r2
    2580:	e0bffa15 	stw	r2,-24(fp)

	switch (ensm_state) {
    2584:	e0bfff03 	ldbu	r2,-4(fp)
    2588:	10c001a0 	cmpeqi	r3,r2,6
    258c:	1800091e 	bne	r3,zero,25b4 <ad9361_ensm_force_state+0x140>
    2590:	10c001c8 	cmpgei	r3,r2,7
    2594:	1800031e 	bne	r3,zero,25a4 <ad9361_ensm_force_state+0x130>
    2598:	10800160 	cmpeqi	r2,r2,5
    259c:	10000d1e 	bne	r2,zero,25d4 <ad9361_ensm_force_state+0x160>
    25a0:	00001406 	br	25f4 <ad9361_ensm_force_state+0x180>
    25a4:	10c00220 	cmpeqi	r3,r2,8
    25a8:	1800061e 	bne	r3,zero,25c4 <ad9361_ensm_force_state+0x150>
    25ac:	108002a0 	cmpeqi	r2,r2,10
    25b0:	10001026 	beq	r2,zero,25f4 <ad9361_ensm_force_state+0x180>

	case ENSM_STATE_TX:
	case ENSM_STATE_FDD:
		val |= FORCE_TX_ON;
    25b4:	e0bffa17 	ldw	r2,-24(fp)
    25b8:	10800814 	ori	r2,r2,32
    25bc:	e0bffa15 	stw	r2,-24(fp)
		break;
    25c0:	00001506 	br	2618 <ad9361_ensm_force_state+0x1a4>
	case ENSM_STATE_RX:
		val |= FORCE_RX_ON;
    25c4:	e0bffa17 	ldw	r2,-24(fp)
    25c8:	10801014 	ori	r2,r2,64
    25cc:	e0bffa15 	stw	r2,-24(fp)
		break;
    25d0:	00001106 	br	2618 <ad9361_ensm_force_state+0x1a4>
	case ENSM_STATE_ALERT:
		val &= ~(FORCE_TX_ON | FORCE_RX_ON);
    25d4:	e0fffa17 	ldw	r3,-24(fp)
    25d8:	00bfe7c4 	movi	r2,-97
    25dc:	1884703a 	and	r2,r3,r2
    25e0:	e0bffa15 	stw	r2,-24(fp)
		val |= TO_ALERT | FORCE_ALERT_STATE;
    25e4:	e0bffa17 	ldw	r2,-24(fp)
    25e8:	10800154 	ori	r2,r2,5
    25ec:	e0bffa15 	stw	r2,-24(fp)
		break;
    25f0:	00000906 	br	2618 <ad9361_ensm_force_state+0x1a4>
	default:
		dev_err(dev, "No handling for forcing %d ensm state",
    25f4:	e0bfff03 	ldbu	r2,-4(fp)
    25f8:	010000b4 	movhi	r4,2
    25fc:	211af604 	addi	r4,r4,27608
    2600:	100b883a 	mov	r5,r2
    2604:	001f8180 	call	1f818 <printf>
    2608:	010000b4 	movhi	r4,2
    260c:	211a7504 	addi	r4,r4,27092
    2610:	001f8180 	call	1f818 <printf>
			ensm_state);
		goto out;
    2614:	00001106 	br	265c <ad9361_ensm_force_state+0x1e8>
	}

	ad9361_spi_write(spi, REG_ENSM_CONFIG_1, TO_ALERT | FORCE_ALERT_STATE);
    2618:	e13ffb17 	ldw	r4,-20(fp)
    261c:	01400504 	movi	r5,20
    2620:	01800144 	movi	r6,5
    2624:	00002600 	call	260 <ad9361_spi_write>

	rc = ad9361_spi_write(spi, REG_ENSM_CONFIG_1, val);
    2628:	e13ffb17 	ldw	r4,-20(fp)
    262c:	01400504 	movi	r5,20
    2630:	e1bffa17 	ldw	r6,-24(fp)
    2634:	00002600 	call	260 <ad9361_spi_write>
    2638:	e0bffd15 	stw	r2,-12(fp)
	if (rc)
    263c:	e0bffd17 	ldw	r2,-12(fp)
    2640:	10000626 	beq	r2,zero,265c <ad9361_ensm_force_state+0x1e8>
		dev_err(dev, "Failed to restore state");
    2644:	010000b4 	movhi	r4,2
    2648:	211b0004 	addi	r4,r4,27648
    264c:	001f8180 	call	1f818 <printf>
    2650:	010000b4 	movhi	r4,2
    2654:	211a7504 	addi	r4,r4,27092
    2658:	001f8180 	call	1f818 <printf>

out:
	return;
    265c:	0001883a 	nop

}
    2660:	e037883a 	mov	sp,fp
    2664:	dfc00117 	ldw	ra,4(sp)
    2668:	df000017 	ldw	fp,0(sp)
    266c:	dec00204 	addi	sp,sp,8
    2670:	f800283a 	ret

00002674 <ad9361_ensm_restore_prev_state>:
 * Restore the previous Enable State Machine (ENSM) state.
 * @param phy The AD9361 state structure.
 * @return None.
 */
void ad9361_ensm_restore_prev_state(struct ad9361_rf_phy *phy)
{
    2674:	defffa04 	addi	sp,sp,-24
    2678:	de00012e 	bgeu	sp,et,2680 <ad9361_ensm_restore_prev_state+0xc>
    267c:	003b68fa 	trap	3
    2680:	dfc00515 	stw	ra,20(sp)
    2684:	df000415 	stw	fp,16(sp)
    2688:	df000404 	addi	fp,sp,16
    268c:	e13fff15 	stw	r4,-4(fp)
	struct spi_device *spi = phy->spi;
    2690:	e0bfff17 	ldw	r2,-4(fp)
    2694:	10800117 	ldw	r2,4(r2)
    2698:	e0bffd15 	stw	r2,-12(fp)
	int32_t rc;
	uint32_t val;

	val = ad9361_spi_read(spi, REG_ENSM_CONFIG_1);
    269c:	e13ffd17 	ldw	r4,-12(fp)
    26a0:	01400504 	movi	r5,20
    26a4:	00001500 	call	150 <ad9361_spi_read>
    26a8:	e0bffc15 	stw	r2,-16(fp)

	/* We are restoring state only, so clear State bits first
	* which might have set while forcing a particular state
	*/
	val &= ~(FORCE_TX_ON | FORCE_RX_ON |
    26ac:	e0fffc17 	ldw	r3,-16(fp)
    26b0:	00bfe684 	movi	r2,-102
    26b4:	1884703a 	and	r2,r3,r2
    26b8:	e0bffc15 	stw	r2,-16(fp)
		TO_ALERT | FORCE_ALERT_STATE);

	switch (phy->prev_ensm_state) {
    26bc:	e0bfff17 	ldw	r2,-4(fp)
    26c0:	10803103 	ldbu	r2,196(r2)
    26c4:	10803fcc 	andi	r2,r2,255
    26c8:	10c00220 	cmpeqi	r3,r2,8
    26cc:	1800101e 	bne	r3,zero,2710 <ad9361_ensm_restore_prev_state+0x9c>
    26d0:	10c00248 	cmpgei	r3,r2,9
    26d4:	1800051e 	bne	r3,zero,26ec <ad9361_ensm_restore_prev_state+0x78>
    26d8:	10c00160 	cmpeqi	r3,r2,5
    26dc:	1800101e 	bne	r3,zero,2720 <ad9361_ensm_restore_prev_state+0xac>
    26e0:	108001a0 	cmpeqi	r2,r2,6
    26e4:	1000061e 	bne	r2,zero,2700 <ad9361_ensm_restore_prev_state+0x8c>
    26e8:	00001806 	br	274c <ad9361_ensm_restore_prev_state+0xd8>
    26ec:	10c002a0 	cmpeqi	r3,r2,10
    26f0:	1800031e 	bne	r3,zero,2700 <ad9361_ensm_restore_prev_state+0x8c>
    26f4:	10803fe0 	cmpeqi	r2,r2,255
    26f8:	10000d1e 	bne	r2,zero,2730 <ad9361_ensm_restore_prev_state+0xbc>
    26fc:	00001306 	br	274c <ad9361_ensm_restore_prev_state+0xd8>

	case ENSM_STATE_TX:
	case ENSM_STATE_FDD:
		val |= FORCE_TX_ON;
    2700:	e0bffc17 	ldw	r2,-16(fp)
    2704:	10800814 	ori	r2,r2,32
    2708:	e0bffc15 	stw	r2,-16(fp)
		break;
    270c:	00001a06 	br	2778 <ad9361_ensm_restore_prev_state+0x104>
	case ENSM_STATE_RX:
		val |= FORCE_RX_ON;
    2710:	e0bffc17 	ldw	r2,-16(fp)
    2714:	10801014 	ori	r2,r2,64
    2718:	e0bffc15 	stw	r2,-16(fp)
		break;
    271c:	00001606 	br	2778 <ad9361_ensm_restore_prev_state+0x104>
	case ENSM_STATE_ALERT:
		val |= TO_ALERT;
    2720:	e0bffc17 	ldw	r2,-16(fp)
    2724:	10800054 	ori	r2,r2,1
    2728:	e0bffc15 	stw	r2,-16(fp)
		break;
    272c:	00001206 	br	2778 <ad9361_ensm_restore_prev_state+0x104>
	case ENSM_STATE_INVALID:
		dev_dbg(dev, "No need to restore, ENSM state wasn't saved");
    2730:	010000b4 	movhi	r4,2
    2734:	211b0604 	addi	r4,r4,27672
    2738:	001f8180 	call	1f818 <printf>
    273c:	010000b4 	movhi	r4,2
    2740:	211a7504 	addi	r4,r4,27092
    2744:	001f8180 	call	1f818 <printf>
		goto out;
    2748:	00003106 	br	2810 <ad9361_ensm_restore_prev_state+0x19c>
	default:
		dev_dbg(dev, "Could not restore to %d ENSM state",
    274c:	e0bfff17 	ldw	r2,-4(fp)
    2750:	10803103 	ldbu	r2,196(r2)
    2754:	10803fcc 	andi	r2,r2,255
    2758:	010000b4 	movhi	r4,2
    275c:	211b1104 	addi	r4,r4,27716
    2760:	100b883a 	mov	r5,r2
    2764:	001f8180 	call	1f818 <printf>
    2768:	010000b4 	movhi	r4,2
    276c:	211a7504 	addi	r4,r4,27092
    2770:	001f8180 	call	1f818 <printf>
			phy->prev_ensm_state);
		goto out;
    2774:	00002606 	br	2810 <ad9361_ensm_restore_prev_state+0x19c>
	}

	ad9361_spi_write(spi, REG_ENSM_CONFIG_1, TO_ALERT | FORCE_ALERT_STATE);
    2778:	e13ffd17 	ldw	r4,-12(fp)
    277c:	01400504 	movi	r5,20
    2780:	01800144 	movi	r6,5
    2784:	00002600 	call	260 <ad9361_spi_write>

	rc = ad9361_spi_write(spi, REG_ENSM_CONFIG_1, val);
    2788:	e13ffd17 	ldw	r4,-12(fp)
    278c:	01400504 	movi	r5,20
    2790:	e1bffc17 	ldw	r6,-16(fp)
    2794:	00002600 	call	260 <ad9361_spi_write>
    2798:	e0bffe15 	stw	r2,-8(fp)
	if (rc) {
    279c:	e0bffe17 	ldw	r2,-8(fp)
    27a0:	10000726 	beq	r2,zero,27c0 <ad9361_ensm_restore_prev_state+0x14c>
		dev_err(dev, "Failed to write ENSM_CONFIG_1");
    27a4:	010000b4 	movhi	r4,2
    27a8:	211b1a04 	addi	r4,r4,27752
    27ac:	001f8180 	call	1f818 <printf>
    27b0:	010000b4 	movhi	r4,2
    27b4:	211a7504 	addi	r4,r4,27092
    27b8:	001f8180 	call	1f818 <printf>
		goto out;
    27bc:	00001406 	br	2810 <ad9361_ensm_restore_prev_state+0x19c>
	}

	if (phy->ensm_pin_ctl_en) {
    27c0:	e0bfff17 	ldw	r2,-4(fp)
    27c4:	10804503 	ldbu	r2,276(r2)
    27c8:	10803fcc 	andi	r2,r2,255
    27cc:	10001026 	beq	r2,zero,2810 <ad9361_ensm_restore_prev_state+0x19c>
		val |= ENABLE_ENSM_PIN_CTRL;
    27d0:	e0bffc17 	ldw	r2,-16(fp)
    27d4:	10800414 	ori	r2,r2,16
    27d8:	e0bffc15 	stw	r2,-16(fp)
		rc = ad9361_spi_write(spi, REG_ENSM_CONFIG_1, val);
    27dc:	e13ffd17 	ldw	r4,-12(fp)
    27e0:	01400504 	movi	r5,20
    27e4:	e1bffc17 	ldw	r6,-16(fp)
    27e8:	00002600 	call	260 <ad9361_spi_write>
    27ec:	e0bffe15 	stw	r2,-8(fp)
		if (rc)
    27f0:	e0bffe17 	ldw	r2,-8(fp)
    27f4:	10000626 	beq	r2,zero,2810 <ad9361_ensm_restore_prev_state+0x19c>
			dev_err(dev, "Failed to write ENSM_CONFIG_1");
    27f8:	010000b4 	movhi	r4,2
    27fc:	211b1a04 	addi	r4,r4,27752
    2800:	001f8180 	call	1f818 <printf>
    2804:	010000b4 	movhi	r4,2
    2808:	211a7504 	addi	r4,r4,27092
    280c:	001f8180 	call	1f818 <printf>
	}

out:
	return;
    2810:	0001883a 	nop
}
    2814:	e037883a 	mov	sp,fp
    2818:	dfc00117 	ldw	ra,4(sp)
    281c:	df000017 	ldw	fp,0(sp)
    2820:	dec00204 	addi	sp,sp,8
    2824:	f800283a 	ret

00002828 <set_split_table_gain>:
 * @param rx_gain The rf_rx_gain struct containing the RF gain.
 * @return 0 in case of success, negative error code otherwise.
 */
static int32_t set_split_table_gain(struct ad9361_rf_phy *phy, uint32_t idx_reg,
struct rf_rx_gain *rx_gain)
{
    2828:	defff704 	addi	sp,sp,-36
    282c:	de00012e 	bgeu	sp,et,2834 <set_split_table_gain+0xc>
    2830:	003b68fa 	trap	3
    2834:	dfc00815 	stw	ra,32(sp)
    2838:	df000715 	stw	fp,28(sp)
    283c:	dc000615 	stw	r16,24(sp)
    2840:	df000704 	addi	fp,sp,28
    2844:	e13ffc15 	stw	r4,-16(fp)
    2848:	e17ffd15 	stw	r5,-12(fp)
    284c:	e1bffe15 	stw	r6,-8(fp)
	struct spi_device *spi = phy->spi;
    2850:	e0bffc17 	ldw	r2,-16(fp)
    2854:	10800117 	ldw	r2,4(r2)
    2858:	e0bffb15 	stw	r2,-20(fp)
	int32_t rc = 0;
    285c:	e03ffa15 	stw	zero,-24(fp)

	if ((rx_gain->fgt_lmt_index > MAX_LMT_INDEX) ||
    2860:	e0bffe17 	ldw	r2,-8(fp)
    2864:	10800217 	ldw	r2,8(r2)
    2868:	10800a68 	cmpgeui	r2,r2,41
    286c:	1000081e 	bne	r2,zero,2890 <set_split_table_gain+0x68>
		(rx_gain->lpf_gain > MAX_LPF_GAIN) ||
    2870:	e0bffe17 	ldw	r2,-8(fp)
    2874:	10800417 	ldw	r2,16(r2)
struct rf_rx_gain *rx_gain)
{
	struct spi_device *spi = phy->spi;
	int32_t rc = 0;

	if ((rx_gain->fgt_lmt_index > MAX_LMT_INDEX) ||
    2878:	10800668 	cmpgeui	r2,r2,25
    287c:	1000041e 	bne	r2,zero,2890 <set_split_table_gain+0x68>
		(rx_gain->lpf_gain > MAX_LPF_GAIN) ||
		(rx_gain->digital_gain > MAX_DIG_GAIN)) {
    2880:	e0bffe17 	ldw	r2,-8(fp)
    2884:	10800517 	ldw	r2,20(r2)
{
	struct spi_device *spi = phy->spi;
	int32_t rc = 0;

	if ((rx_gain->fgt_lmt_index > MAX_LMT_INDEX) ||
		(rx_gain->lpf_gain > MAX_LPF_GAIN) ||
    2888:	10800830 	cmpltui	r2,r2,32
    288c:	1000181e 	bne	r2,zero,28f0 <set_split_table_gain+0xc8>
		(rx_gain->digital_gain > MAX_DIG_GAIN)) {
		dev_err(dev, "LMT_INDEX missing or greater than max value %d",
    2890:	010000b4 	movhi	r4,2
    2894:	211b2204 	addi	r4,r4,27784
    2898:	01400a04 	movi	r5,40
    289c:	001f8180 	call	1f818 <printf>
    28a0:	010000b4 	movhi	r4,2
    28a4:	211a7504 	addi	r4,r4,27092
    28a8:	001f8180 	call	1f818 <printf>
			MAX_LMT_INDEX);
		dev_err(dev, "LPF_GAIN missing or greater than max value %d",
    28ac:	010000b4 	movhi	r4,2
    28b0:	211b2e04 	addi	r4,r4,27832
    28b4:	01400604 	movi	r5,24
    28b8:	001f8180 	call	1f818 <printf>
    28bc:	010000b4 	movhi	r4,2
    28c0:	211a7504 	addi	r4,r4,27092
    28c4:	001f8180 	call	1f818 <printf>
			MAX_LPF_GAIN);
		dev_err(dev, "DIGITAL_GAIN cannot be more than %d",
    28c8:	010000b4 	movhi	r4,2
    28cc:	211b3a04 	addi	r4,r4,27880
    28d0:	014007c4 	movi	r5,31
    28d4:	001f8180 	call	1f818 <printf>
    28d8:	010000b4 	movhi	r4,2
    28dc:	211a7504 	addi	r4,r4,27092
    28e0:	001f8180 	call	1f818 <printf>
			MAX_DIG_GAIN);
		rc = -EINVAL;
    28e4:	00bffa84 	movi	r2,-22
    28e8:	e0bffa15 	stw	r2,-24(fp)
		goto out;
    28ec:	00004f06 	br	2a2c <set_split_table_gain+0x204>
	}
	if (rx_gain->gain_db > 0)
    28f0:	e0bffe17 	ldw	r2,-8(fp)
    28f4:	10800117 	ldw	r2,4(r2)
    28f8:	0080060e 	bge	zero,r2,2914 <set_split_table_gain+0xec>
		dev_dbg(dev, "Ignoring rx_gain value in split table mode.");
    28fc:	010000b4 	movhi	r4,2
    2900:	211b4304 	addi	r4,r4,27916
    2904:	001f8180 	call	1f818 <printf>
    2908:	010000b4 	movhi	r4,2
    290c:	211a7504 	addi	r4,r4,27092
    2910:	001f8180 	call	1f818 <printf>
	if (rx_gain->fgt_lmt_index == 0 && rx_gain->lpf_gain == 0 &&
    2914:	e0bffe17 	ldw	r2,-8(fp)
    2918:	10800217 	ldw	r2,8(r2)
    291c:	10000f1e 	bne	r2,zero,295c <set_split_table_gain+0x134>
    2920:	e0bffe17 	ldw	r2,-8(fp)
    2924:	10800417 	ldw	r2,16(r2)
    2928:	10000c1e 	bne	r2,zero,295c <set_split_table_gain+0x134>
		rx_gain->digital_gain == 0) {
    292c:	e0bffe17 	ldw	r2,-8(fp)
    2930:	10800517 	ldw	r2,20(r2)
		rc = -EINVAL;
		goto out;
	}
	if (rx_gain->gain_db > 0)
		dev_dbg(dev, "Ignoring rx_gain value in split table mode.");
	if (rx_gain->fgt_lmt_index == 0 && rx_gain->lpf_gain == 0 &&
    2934:	1000091e 	bne	r2,zero,295c <set_split_table_gain+0x134>
		rx_gain->digital_gain == 0) {
		dev_err(dev,
    2938:	010000b4 	movhi	r4,2
    293c:	211b4e04 	addi	r4,r4,27960
    2940:	001f8180 	call	1f818 <printf>
    2944:	010000b4 	movhi	r4,2
    2948:	211a7504 	addi	r4,r4,27092
    294c:	001f8180 	call	1f818 <printf>
			"In split table mode, All LMT/LPF/digital gains cannot be 0");
		rc = -EINVAL;
    2950:	00bffa84 	movi	r2,-22
    2954:	e0bffa15 	stw	r2,-24(fp)
		goto out;
    2958:	00003406 	br	2a2c <set_split_table_gain+0x204>
	}

	ad9361_spi_writef(spi, idx_reg, RX_FULL_TBL_IDX_MASK, rx_gain->fgt_lmt_index);
    295c:	01001fc4 	movi	r4,127
    2960:	001c8300 	call	1c830 <find_first_bit>
    2964:	1007883a 	mov	r3,r2
    2968:	e0bffe17 	ldw	r2,-8(fp)
    296c:	10800217 	ldw	r2,8(r2)
    2970:	d8800015 	stw	r2,0(sp)
    2974:	e13ffb17 	ldw	r4,-20(fp)
    2978:	e17ffd17 	ldw	r5,-12(fp)
    297c:	01801fc4 	movi	r6,127
    2980:	180f883a 	mov	r7,r3
    2984:	000031c0 	call	31c <__ad9361_spi_writef>
	ad9361_spi_writef(spi, idx_reg + 1, RX_LPF_IDX_MASK, rx_gain->lpf_gain);
    2988:	e0bffd17 	ldw	r2,-12(fp)
    298c:	14000044 	addi	r16,r2,1
    2990:	010007c4 	movi	r4,31
    2994:	001c8300 	call	1c830 <find_first_bit>
    2998:	1007883a 	mov	r3,r2
    299c:	e0bffe17 	ldw	r2,-8(fp)
    29a0:	10800417 	ldw	r2,16(r2)
    29a4:	d8800015 	stw	r2,0(sp)
    29a8:	e13ffb17 	ldw	r4,-20(fp)
    29ac:	800b883a 	mov	r5,r16
    29b0:	018007c4 	movi	r6,31
    29b4:	180f883a 	mov	r7,r3
    29b8:	000031c0 	call	31c <__ad9361_spi_writef>

	if (phy->pdata->gain_ctrl.dig_gain_en) {
    29bc:	e0bffc17 	ldw	r2,-16(fp)
    29c0:	10803017 	ldw	r2,192(r2)
    29c4:	108029c3 	ldbu	r2,167(r2)
    29c8:	10803fcc 	andi	r2,r2,255
    29cc:	10000e26 	beq	r2,zero,2a08 <set_split_table_gain+0x1e0>
		ad9361_spi_writef(spi, idx_reg + 2, RX_DIGITAL_IDX_MASK, rx_gain->digital_gain);
    29d0:	e0bffd17 	ldw	r2,-12(fp)
    29d4:	14000084 	addi	r16,r2,2
    29d8:	010007c4 	movi	r4,31
    29dc:	001c8300 	call	1c830 <find_first_bit>
    29e0:	1007883a 	mov	r3,r2
    29e4:	e0bffe17 	ldw	r2,-8(fp)
    29e8:	10800517 	ldw	r2,20(r2)
    29ec:	d8800015 	stw	r2,0(sp)
    29f0:	e13ffb17 	ldw	r4,-20(fp)
    29f4:	800b883a 	mov	r5,r16
    29f8:	018007c4 	movi	r6,31
    29fc:	180f883a 	mov	r7,r3
    2a00:	000031c0 	call	31c <__ad9361_spi_writef>
    2a04:	00000906 	br	2a2c <set_split_table_gain+0x204>

	}
	else if (rx_gain->digital_gain > 0) {
    2a08:	e0bffe17 	ldw	r2,-8(fp)
    2a0c:	10800517 	ldw	r2,20(r2)
    2a10:	10000626 	beq	r2,zero,2a2c <set_split_table_gain+0x204>
		dev_err(dev, "Digital gain is disabled and cannot be set");
    2a14:	010000b4 	movhi	r4,2
    2a18:	211b5d04 	addi	r4,r4,28020
    2a1c:	001f8180 	call	1f818 <printf>
    2a20:	010000b4 	movhi	r4,2
    2a24:	211a7504 	addi	r4,r4,27092
    2a28:	001f8180 	call	1f818 <printf>
	}
out:
	return rc;
    2a2c:	e0bffa17 	ldw	r2,-24(fp)
}
    2a30:	e6ffff04 	addi	sp,fp,-4
    2a34:	dfc00217 	ldw	ra,8(sp)
    2a38:	df000117 	ldw	fp,4(sp)
    2a3c:	dc000017 	ldw	r16,0(sp)
    2a40:	dec00304 	addi	sp,sp,12
    2a44:	f800283a 	ret

00002a48 <set_full_table_gain>:
 * @param rx_gain The rf_rx_gain struct containing the RF gain.
 * @return 0 in case of success, negative error code otherwise.
 */
static int32_t set_full_table_gain(struct ad9361_rf_phy *phy, uint32_t idx_reg,
struct rf_rx_gain *rx_gain)
{
    2a48:	defff504 	addi	sp,sp,-44
    2a4c:	de00012e 	bgeu	sp,et,2a54 <set_full_table_gain+0xc>
    2a50:	003b68fa 	trap	3
    2a54:	dfc00a15 	stw	ra,40(sp)
    2a58:	df000915 	stw	fp,36(sp)
    2a5c:	df000904 	addi	fp,sp,36
    2a60:	e13ffd15 	stw	r4,-12(fp)
    2a64:	e17ffe15 	stw	r5,-8(fp)
    2a68:	e1bfff15 	stw	r6,-4(fp)
	struct spi_device *spi = phy->spi;
    2a6c:	e0bffd17 	ldw	r2,-12(fp)
    2a70:	10800117 	ldw	r2,4(r2)
    2a74:	e0bff915 	stw	r2,-28(fp)
	enum rx_gain_table_name tbl;
	struct rx_gain_info *gain_info;
	uint32_t val;
	int32_t rc = 0;
    2a78:	e03ff815 	stw	zero,-32(fp)

	if (rx_gain->fgt_lmt_index != (uint32_t)~0 || (int64_t)rx_gain->lpf_gain != (uint32_t)~0 ||
    2a7c:	e0bfff17 	ldw	r2,-4(fp)
    2a80:	10800217 	ldw	r2,8(r2)
    2a84:	10bfffd8 	cmpnei	r2,r2,-1
    2a88:	1000071e 	bne	r2,zero,2aa8 <set_full_table_gain+0x60>
    2a8c:	e0bfff17 	ldw	r2,-4(fp)
    2a90:	10800417 	ldw	r2,16(r2)
    2a94:	10bfffd8 	cmpnei	r2,r2,-1
    2a98:	1000031e 	bne	r2,zero,2aa8 <set_full_table_gain+0x60>
		rx_gain->digital_gain > 0)
    2a9c:	e0bfff17 	ldw	r2,-4(fp)
    2aa0:	10800517 	ldw	r2,20(r2)
	enum rx_gain_table_name tbl;
	struct rx_gain_info *gain_info;
	uint32_t val;
	int32_t rc = 0;

	if (rx_gain->fgt_lmt_index != (uint32_t)~0 || (int64_t)rx_gain->lpf_gain != (uint32_t)~0 ||
    2aa4:	10000626 	beq	r2,zero,2ac0 <set_full_table_gain+0x78>
		rx_gain->digital_gain > 0)
		dev_dbg(dev,
    2aa8:	010000b4 	movhi	r4,2
    2aac:	211b6804 	addi	r4,r4,28064
    2ab0:	001f8180 	call	1f818 <printf>
    2ab4:	010000b4 	movhi	r4,2
    2ab8:	211a7504 	addi	r4,r4,27092
    2abc:	001f8180 	call	1f818 <printf>
		"Ignoring lmt/lpf/digital gains in Single Table mode");

	tbl = ad9361_gt_tableindex(
    2ac0:	e0bffd17 	ldw	r2,-12(fp)
    2ac4:	10802917 	ldw	r2,164(r2)
    2ac8:	e13ffd17 	ldw	r4,-12(fp)
    2acc:	100b883a 	mov	r5,r2
    2ad0:	001bc900 	call	1bc90 <clk_get_rate>
    2ad4:	1009883a 	mov	r4,r2
    2ad8:	00010f00 	call	10f0 <ad9361_from_clk>
    2adc:	100b883a 	mov	r5,r2
    2ae0:	180d883a 	mov	r6,r3
    2ae4:	2809883a 	mov	r4,r5
    2ae8:	300b883a 	mov	r5,r6
    2aec:	00010280 	call	1028 <ad9361_gt_tableindex>
    2af0:	e0bffa15 	stw	r2,-24(fp)
		ad9361_from_clk(clk_get_rate(phy, phy->ref_clk_scale[RX_RFPLL])));

	gain_info = &phy->rx_gain[tbl];
    2af4:	e0bffa17 	ldw	r2,-24(fp)
    2af8:	10800624 	muli	r2,r2,24
    2afc:	10803204 	addi	r2,r2,200
    2b00:	e0fffd17 	ldw	r3,-12(fp)
    2b04:	1885883a 	add	r2,r3,r2
    2b08:	e0bffb15 	stw	r2,-20(fp)
	if ((rx_gain->gain_db < gain_info->starting_gain_db) ||
    2b0c:	e0bfff17 	ldw	r2,-4(fp)
    2b10:	10c00117 	ldw	r3,4(r2)
    2b14:	e0bffb17 	ldw	r2,-20(fp)
    2b18:	10800117 	ldw	r2,4(r2)
    2b1c:	18800516 	blt	r3,r2,2b34 <set_full_table_gain+0xec>
		(rx_gain->gain_db > gain_info->max_gain_db)) {
    2b20:	e0bfff17 	ldw	r2,-4(fp)
    2b24:	10800117 	ldw	r2,4(r2)
    2b28:	e0fffb17 	ldw	r3,-20(fp)
    2b2c:	18c00217 	ldw	r3,8(r3)

	tbl = ad9361_gt_tableindex(
		ad9361_from_clk(clk_get_rate(phy, phy->ref_clk_scale[RX_RFPLL])));

	gain_info = &phy->rx_gain[tbl];
	if ((rx_gain->gain_db < gain_info->starting_gain_db) ||
    2b30:	1880110e 	bge	r3,r2,2b78 <set_full_table_gain+0x130>
		(rx_gain->gain_db > gain_info->max_gain_db)) {

		dev_err(dev, "Invalid gain %"PRId32", supported range [%"PRId32" - %"PRId32"]",
    2b34:	e0bfff17 	ldw	r2,-4(fp)
    2b38:	11400117 	ldw	r5,4(r2)
    2b3c:	e0bffb17 	ldw	r2,-20(fp)
    2b40:	10c00117 	ldw	r3,4(r2)
    2b44:	e0bffb17 	ldw	r2,-20(fp)
    2b48:	10800217 	ldw	r2,8(r2)
    2b4c:	010000b4 	movhi	r4,2
    2b50:	211b7504 	addi	r4,r4,28116
    2b54:	180d883a 	mov	r6,r3
    2b58:	100f883a 	mov	r7,r2
    2b5c:	001f8180 	call	1f818 <printf>
    2b60:	010000b4 	movhi	r4,2
    2b64:	211a7504 	addi	r4,r4,27092
    2b68:	001f8180 	call	1f818 <printf>
			rx_gain->gain_db, gain_info->starting_gain_db,
			gain_info->max_gain_db);
		rc = -EINVAL;
    2b6c:	00bffa84 	movi	r2,-22
    2b70:	e0bff815 	stw	r2,-32(fp)
		goto out;
    2b74:	00001906 	br	2bdc <set_full_table_gain+0x194>

	}

	val = ((rx_gain->gain_db - gain_info->starting_gain_db) /
    2b78:	e0bfff17 	ldw	r2,-4(fp)
    2b7c:	10c00117 	ldw	r3,4(r2)
    2b80:	e0bffb17 	ldw	r2,-20(fp)
    2b84:	10800117 	ldw	r2,4(r2)
    2b88:	1887c83a 	sub	r3,r3,r2
		gain_info->gain_step_db) + gain_info->idx_step_offset;
    2b8c:	e0bffb17 	ldw	r2,-20(fp)
    2b90:	10800317 	ldw	r2,12(r2)
		rc = -EINVAL;
		goto out;

	}

	val = ((rx_gain->gain_db - gain_info->starting_gain_db) /
    2b94:	1809883a 	mov	r4,r3
    2b98:	100b883a 	mov	r5,r2
    2b9c:	001d6e40 	call	1d6e4 <__divsi3>
    2ba0:	1007883a 	mov	r3,r2
		gain_info->gain_step_db) + gain_info->idx_step_offset;
    2ba4:	e0bffb17 	ldw	r2,-20(fp)
    2ba8:	10800517 	ldw	r2,20(r2)
    2bac:	1885883a 	add	r2,r3,r2
		rc = -EINVAL;
		goto out;

	}

	val = ((rx_gain->gain_db - gain_info->starting_gain_db) /
    2bb0:	e0bffc15 	stw	r2,-16(fp)
		gain_info->gain_step_db) + gain_info->idx_step_offset;
	ad9361_spi_writef(spi, idx_reg, RX_FULL_TBL_IDX_MASK, val);
    2bb4:	01001fc4 	movi	r4,127
    2bb8:	001c8300 	call	1c830 <find_first_bit>
    2bbc:	1007883a 	mov	r3,r2
    2bc0:	e0bffc17 	ldw	r2,-16(fp)
    2bc4:	d8800015 	stw	r2,0(sp)
    2bc8:	e13ff917 	ldw	r4,-28(fp)
    2bcc:	e17ffe17 	ldw	r5,-8(fp)
    2bd0:	01801fc4 	movi	r6,127
    2bd4:	180f883a 	mov	r7,r3
    2bd8:	000031c0 	call	31c <__ad9361_spi_writef>

out:
	return rc;
    2bdc:	e0bff817 	ldw	r2,-32(fp)
}
    2be0:	e037883a 	mov	sp,fp
    2be4:	dfc00117 	ldw	ra,4(sp)
    2be8:	df000017 	ldw	fp,0(sp)
    2bec:	dec00204 	addi	sp,sp,8
    2bf0:	f800283a 	ret

00002bf4 <ad9361_set_rx_gain>:
 * @param rx_gain The rf_rx_gain struct containing the RF gain.
 * @return 0 in case of success, negative error code otherwise.
 */
int32_t ad9361_set_rx_gain(struct ad9361_rf_phy *phy,
	uint32_t rx_id, struct rf_rx_gain *rx_gain)
{
    2bf4:	defff604 	addi	sp,sp,-40
    2bf8:	de00012e 	bgeu	sp,et,2c00 <ad9361_set_rx_gain+0xc>
    2bfc:	003b68fa 	trap	3
    2c00:	dfc00915 	stw	ra,36(sp)
    2c04:	df000815 	stw	fp,32(sp)
    2c08:	df000804 	addi	fp,sp,32
    2c0c:	e13ffd15 	stw	r4,-12(fp)
    2c10:	e17ffe15 	stw	r5,-8(fp)
    2c14:	e1bfff15 	stw	r6,-4(fp)
	struct spi_device *spi = phy->spi;
    2c18:	e0bffd17 	ldw	r2,-12(fp)
    2c1c:	10800117 	ldw	r2,4(r2)
    2c20:	e0bffb15 	stw	r2,-20(fp)
	uint32_t val, idx_reg;
	uint8_t gain_ctl_shift;
	int32_t rc = 0;
    2c24:	e03ffa15 	stw	zero,-24(fp)

	if (rx_id == 1) {
    2c28:	e0bffe17 	ldw	r2,-8(fp)
    2c2c:	10800058 	cmpnei	r2,r2,1
    2c30:	1000041e 	bne	r2,zero,2c44 <ad9361_set_rx_gain+0x50>
		gain_ctl_shift = RX1_GAIN_CTRL_SHIFT;
    2c34:	e03ff905 	stb	zero,-28(fp)
		idx_reg = REG_RX1_MANUAL_LMT_FULL_GAIN;
    2c38:	00804244 	movi	r2,265
    2c3c:	e0bff815 	stw	r2,-32(fp)
    2c40:	00001206 	br	2c8c <ad9361_set_rx_gain+0x98>

	}
	else if (rx_id == 2) {
    2c44:	e0bffe17 	ldw	r2,-8(fp)
    2c48:	10800098 	cmpnei	r2,r2,2
    2c4c:	1000051e 	bne	r2,zero,2c64 <ad9361_set_rx_gain+0x70>
		gain_ctl_shift = RX2_GAIN_CTRL_SHIFT;
    2c50:	00800084 	movi	r2,2
    2c54:	e0bff905 	stb	r2,-28(fp)
		idx_reg = REG_RX2_MANUAL_LMT_FULL_GAIN;
    2c58:	00804304 	movi	r2,268
    2c5c:	e0bff815 	stw	r2,-32(fp)
    2c60:	00000a06 	br	2c8c <ad9361_set_rx_gain+0x98>
	}
	else {
		dev_err(dev, "Unknown Rx path %"PRIu32, rx_id);
    2c64:	010000b4 	movhi	r4,2
    2c68:	211acb04 	addi	r4,r4,27436
    2c6c:	e17ffe17 	ldw	r5,-8(fp)
    2c70:	001f8180 	call	1f818 <printf>
    2c74:	010000b4 	movhi	r4,2
    2c78:	211a7504 	addi	r4,r4,27092
    2c7c:	001f8180 	call	1f818 <printf>
		rc = -EINVAL;
    2c80:	00bffa84 	movi	r2,-22
    2c84:	e0bffa15 	stw	r2,-24(fp)
		goto out;
    2c88:	00002f06 	br	2d48 <ad9361_set_rx_gain+0x154>

	}

	val = ad9361_spi_read(spi, REG_AGC_CONFIG_1);
    2c8c:	e13ffb17 	ldw	r4,-20(fp)
    2c90:	01403e84 	movi	r5,250
    2c94:	00001500 	call	150 <ad9361_spi_read>
    2c98:	e0bffc15 	stw	r2,-16(fp)
	val = (val >> gain_ctl_shift) & RX_GAIN_CTL_MASK;
    2c9c:	e0bff903 	ldbu	r2,-28(fp)
    2ca0:	e0fffc17 	ldw	r3,-16(fp)
    2ca4:	1884d83a 	srl	r2,r3,r2
    2ca8:	108000cc 	andi	r2,r2,3
    2cac:	e0bffc15 	stw	r2,-16(fp)

	if (val != RX_GAIN_CTL_MGC) {
    2cb0:	e0bffc17 	ldw	r2,-16(fp)
    2cb4:	10000726 	beq	r2,zero,2cd4 <ad9361_set_rx_gain+0xe0>
		dev_dbg(dev, "Rx gain can be set in MGC mode only");
    2cb8:	010000b4 	movhi	r4,2
    2cbc:	211b8104 	addi	r4,r4,28164
    2cc0:	001f8180 	call	1f818 <printf>
    2cc4:	010000b4 	movhi	r4,2
    2cc8:	211a7504 	addi	r4,r4,27092
    2ccc:	001f8180 	call	1f818 <printf>
		goto out;
    2cd0:	00001d06 	br	2d48 <ad9361_set_rx_gain+0x154>
	}

	if (has_split_gt && phy->pdata->split_gt)
    2cd4:	00800044 	movi	r2,1
    2cd8:	10803fcc 	andi	r2,r2,255
    2cdc:	10000b26 	beq	r2,zero,2d0c <ad9361_set_rx_gain+0x118>
    2ce0:	e0bffd17 	ldw	r2,-12(fp)
    2ce4:	10803017 	ldw	r2,192(r2)
    2ce8:	108000c3 	ldbu	r2,3(r2)
    2cec:	10803fcc 	andi	r2,r2,255
    2cf0:	10000626 	beq	r2,zero,2d0c <ad9361_set_rx_gain+0x118>
		rc = set_split_table_gain(phy, idx_reg, rx_gain);
    2cf4:	e13ffd17 	ldw	r4,-12(fp)
    2cf8:	e17ff817 	ldw	r5,-32(fp)
    2cfc:	e1bfff17 	ldw	r6,-4(fp)
    2d00:	00028280 	call	2828 <set_split_table_gain>
    2d04:	e0bffa15 	stw	r2,-24(fp)
    2d08:	00000506 	br	2d20 <ad9361_set_rx_gain+0x12c>
	else
		rc = set_full_table_gain(phy, idx_reg, rx_gain);
    2d0c:	e13ffd17 	ldw	r4,-12(fp)
    2d10:	e17ff817 	ldw	r5,-32(fp)
    2d14:	e1bfff17 	ldw	r6,-4(fp)
    2d18:	0002a480 	call	2a48 <set_full_table_gain>
    2d1c:	e0bffa15 	stw	r2,-24(fp)

	if (rc) {
    2d20:	e0bffa17 	ldw	r2,-24(fp)
    2d24:	10000826 	beq	r2,zero,2d48 <ad9361_set_rx_gain+0x154>
		dev_err(dev, "Unable to write gain tbl idx reg: %"PRIu32, idx_reg);
    2d28:	010000b4 	movhi	r4,2
    2d2c:	211b8a04 	addi	r4,r4,28200
    2d30:	e17ff817 	ldw	r5,-32(fp)
    2d34:	001f8180 	call	1f818 <printf>
    2d38:	010000b4 	movhi	r4,2
    2d3c:	211a7504 	addi	r4,r4,27092
    2d40:	001f8180 	call	1f818 <printf>
		goto out;
    2d44:	0001883a 	nop
	}

out:
	return rc;
    2d48:	e0bffa17 	ldw	r2,-24(fp)

}
    2d4c:	e037883a 	mov	sp,fp
    2d50:	dfc00117 	ldw	ra,4(sp)
    2d54:	df000017 	ldw	fp,0(sp)
    2d58:	dec00204 	addi	sp,sp,8
    2d5c:	f800283a 	ret

00002d60 <ad9361_init_gain_info>:
 * @return None
 */
static void ad9361_init_gain_info(struct rx_gain_info *rx_gain,
enum rx_gain_table_type type, int32_t starting_gain,
	int32_t max_gain, int32_t gain_step, int32_t max_idx, int32_t idx_offset)
{
    2d60:	defffb04 	addi	sp,sp,-20
    2d64:	de00012e 	bgeu	sp,et,2d6c <ad9361_init_gain_info+0xc>
    2d68:	003b68fa 	trap	3
    2d6c:	df000415 	stw	fp,16(sp)
    2d70:	df000404 	addi	fp,sp,16
    2d74:	e13ffc15 	stw	r4,-16(fp)
    2d78:	e17ffd15 	stw	r5,-12(fp)
    2d7c:	e1bffe15 	stw	r6,-8(fp)
    2d80:	e1ffff15 	stw	r7,-4(fp)
	rx_gain->tbl_type = type;
    2d84:	e0bffc17 	ldw	r2,-16(fp)
    2d88:	e0fffd17 	ldw	r3,-12(fp)
    2d8c:	10c00015 	stw	r3,0(r2)
	rx_gain->starting_gain_db = starting_gain;
    2d90:	e0bffc17 	ldw	r2,-16(fp)
    2d94:	e0fffe17 	ldw	r3,-8(fp)
    2d98:	10c00115 	stw	r3,4(r2)
	rx_gain->max_gain_db = max_gain;
    2d9c:	e0bffc17 	ldw	r2,-16(fp)
    2da0:	e0ffff17 	ldw	r3,-4(fp)
    2da4:	10c00215 	stw	r3,8(r2)
	rx_gain->gain_step_db = gain_step;
    2da8:	e0bffc17 	ldw	r2,-16(fp)
    2dac:	e0c00117 	ldw	r3,4(fp)
    2db0:	10c00315 	stw	r3,12(r2)
	rx_gain->max_idx = max_idx;
    2db4:	e0bffc17 	ldw	r2,-16(fp)
    2db8:	e0c00217 	ldw	r3,8(fp)
    2dbc:	10c00415 	stw	r3,16(r2)
	rx_gain->idx_step_offset = idx_offset;
    2dc0:	e0bffc17 	ldw	r2,-16(fp)
    2dc4:	e0c00317 	ldw	r3,12(fp)
    2dc8:	10c00515 	stw	r3,20(r2)
}
    2dcc:	e037883a 	mov	sp,fp
    2dd0:	df000017 	ldw	fp,0(sp)
    2dd4:	dec00104 	addi	sp,sp,4
    2dd8:	f800283a 	ret

00002ddc <ad9361_init_gain_tables>:
 * Initialize the gain table information.
 * @param phy The AD9361 state structure.
 * @return 0 in case of success, negative error code otherwise.
 */
int32_t ad9361_init_gain_tables(struct ad9361_rf_phy *phy)
{
    2ddc:	defff904 	addi	sp,sp,-28
    2de0:	de00012e 	bgeu	sp,et,2de8 <ad9361_init_gain_tables+0xc>
    2de4:	003b68fa 	trap	3
    2de8:	dfc00615 	stw	ra,24(sp)
    2dec:	df000515 	stw	fp,20(sp)
    2df0:	df000504 	addi	fp,sp,20
    2df4:	e13fff15 	stw	r4,-4(fp)

	/* Intialize Meta data according to default gain tables
	* of AD9631. Changing/Writing of gain tables is not
	* supported yet.
	*/
	rx_gain = &phy->rx_gain[TBL_200_1300_MHZ];
    2df8:	e0bfff17 	ldw	r2,-4(fp)
    2dfc:	10803204 	addi	r2,r2,200
    2e00:	e0bffe15 	stw	r2,-8(fp)
	ad9361_init_gain_info(rx_gain, RXGAIN_FULL_TBL, 1, 77, 1,
    2e04:	00800044 	movi	r2,1
    2e08:	d8800015 	stw	r2,0(sp)
    2e0c:	00801344 	movi	r2,77
    2e10:	d8800115 	stw	r2,4(sp)
    2e14:	d8000215 	stw	zero,8(sp)
    2e18:	e13ffe17 	ldw	r4,-8(fp)
    2e1c:	000b883a 	mov	r5,zero
    2e20:	01800044 	movi	r6,1
    2e24:	01c01344 	movi	r7,77
    2e28:	0002d600 	call	2d60 <ad9361_init_gain_info>
		SIZE_FULL_TABLE, 0);

	rx_gain = &phy->rx_gain[TBL_1300_4000_MHZ];
    2e2c:	e0bfff17 	ldw	r2,-4(fp)
    2e30:	10803804 	addi	r2,r2,224
    2e34:	e0bffe15 	stw	r2,-8(fp)
	ad9361_init_gain_info(rx_gain, RXGAIN_FULL_TBL, -4, 71, 1,
    2e38:	00800044 	movi	r2,1
    2e3c:	d8800015 	stw	r2,0(sp)
    2e40:	00801344 	movi	r2,77
    2e44:	d8800115 	stw	r2,4(sp)
    2e48:	00800044 	movi	r2,1
    2e4c:	d8800215 	stw	r2,8(sp)
    2e50:	e13ffe17 	ldw	r4,-8(fp)
    2e54:	000b883a 	mov	r5,zero
    2e58:	01bfff04 	movi	r6,-4
    2e5c:	01c011c4 	movi	r7,71
    2e60:	0002d600 	call	2d60 <ad9361_init_gain_info>
		SIZE_FULL_TABLE, 1);

	rx_gain = &phy->rx_gain[TBL_4000_6000_MHZ];
    2e64:	e0bfff17 	ldw	r2,-4(fp)
    2e68:	10803e04 	addi	r2,r2,248
    2e6c:	e0bffe15 	stw	r2,-8(fp)
	ad9361_init_gain_info(rx_gain, RXGAIN_FULL_TBL, -10, 62, 1,
    2e70:	00800044 	movi	r2,1
    2e74:	d8800015 	stw	r2,0(sp)
    2e78:	00801344 	movi	r2,77
    2e7c:	d8800115 	stw	r2,4(sp)
    2e80:	00800104 	movi	r2,4
    2e84:	d8800215 	stw	r2,8(sp)
    2e88:	e13ffe17 	ldw	r4,-8(fp)
    2e8c:	000b883a 	mov	r5,zero
    2e90:	01bffd84 	movi	r6,-10
    2e94:	01c00f84 	movi	r7,62
    2e98:	0002d600 	call	2d60 <ad9361_init_gain_info>
		SIZE_FULL_TABLE, 4);

	return 0;
    2e9c:	0005883a 	mov	r2,zero
}
    2ea0:	e037883a 	mov	sp,fp
    2ea4:	dfc00117 	ldw	ra,4(sp)
    2ea8:	df000017 	ldw	fp,0(sp)
    2eac:	dec00204 	addi	sp,sp,8
    2eb0:	f800283a 	ret

00002eb4 <ad9361_gc_update>:
 * Update the Gain Control.
 * @param phy The AD9361 state structure.
 * @return 0 in case of success, negative error code otherwise.
 */
static int32_t ad9361_gc_update(struct ad9361_rf_phy *phy)
{
    2eb4:	defff304 	addi	sp,sp,-52
    2eb8:	de00012e 	bgeu	sp,et,2ec0 <ad9361_gc_update+0xc>
    2ebc:	003b68fa 	trap	3
    2ec0:	dfc00c15 	stw	ra,48(sp)
    2ec4:	df000b15 	stw	fp,44(sp)
    2ec8:	dc000a15 	stw	r16,40(sp)
    2ecc:	df000b04 	addi	fp,sp,44
    2ed0:	e13ffe15 	stw	r4,-8(fp)
	struct spi_device *spi = phy->spi;
    2ed4:	e0bffe17 	ldw	r2,-8(fp)
    2ed8:	10800117 	ldw	r2,4(r2)
    2edc:	e0bff815 	stw	r2,-32(fp)
	uint32_t clkrf;
	uint32_t reg, delay_lna, settling_delay, dec_pow_meas_dur;
	int32_t ret;
	uint32_t fir_div;

	clkrf = clk_get_rate(phy, phy->ref_clk_scale[CLKRF_CLK]);
    2ee0:	e0bffe17 	ldw	r2,-8(fp)
    2ee4:	10801e17 	ldw	r2,120(r2)
    2ee8:	e13ffe17 	ldw	r4,-8(fp)
    2eec:	100b883a 	mov	r5,r2
    2ef0:	001bc900 	call	1bc90 <clk_get_rate>
    2ef4:	e0bff915 	stw	r2,-28(fp)
	delay_lna = phy->pdata->elna_ctrl.settling_delay_ns;
    2ef8:	e0bffe17 	ldw	r2,-8(fp)
    2efc:	10803017 	ldw	r2,192(r2)
    2f00:	10804717 	ldw	r2,284(r2)
    2f04:	e0bffa15 	stw	r2,-24(fp)
	/*
	 * AGC Attack Delay (us)=ceiling((((0.2+Delay_LNA)*ClkRF+14))/(2*ClkRF))+1
	 * ClkRF in MHz, delay in us
	 */

	reg = (200 * delay_lna) / 2 + (14000000UL / (clkrf / 500U));
    2f08:	e0bffa17 	ldw	r2,-24(fp)
    2f0c:	10803224 	muli	r2,r2,200
    2f10:	1020d07a 	srli	r16,r2,1
    2f14:	e0bff917 	ldw	r2,-28(fp)
    2f18:	1009883a 	mov	r4,r2
    2f1c:	01407d04 	movi	r5,500
    2f20:	001d7a40 	call	1d7a4 <__udivsi3>
    2f24:	010035b4 	movhi	r4,214
    2f28:	2127e004 	addi	r4,r4,-24704
    2f2c:	100b883a 	mov	r5,r2
    2f30:	001d7a40 	call	1d7a4 <__udivsi3>
    2f34:	8085883a 	add	r2,r16,r2
    2f38:	e0bff615 	stw	r2,-40(fp)
	reg = DIV_ROUND_UP(reg, 1000UL) +
    2f3c:	e0bff617 	ldw	r2,-40(fp)
    2f40:	1080f9c4 	addi	r2,r2,999
    2f44:	1009883a 	mov	r4,r2
    2f48:	0140fa04 	movi	r5,1000
    2f4c:	001d7a40 	call	1d7a4 <__udivsi3>
    2f50:	1007883a 	mov	r3,r2
		phy->pdata->gain_ctrl.agc_attack_delay_extra_margin_us;
    2f54:	e0bffe17 	ldw	r2,-8(fp)
    2f58:	10803017 	ldw	r2,192(r2)
    2f5c:	10802b83 	ldbu	r2,174(r2)
	 * AGC Attack Delay (us)=ceiling((((0.2+Delay_LNA)*ClkRF+14))/(2*ClkRF))+1
	 * ClkRF in MHz, delay in us
	 */

	reg = (200 * delay_lna) / 2 + (14000000UL / (clkrf / 500U));
	reg = DIV_ROUND_UP(reg, 1000UL) +
    2f60:	10803fcc 	andi	r2,r2,255
    2f64:	1885883a 	add	r2,r3,r2
    2f68:	e0bff615 	stw	r2,-40(fp)
		phy->pdata->gain_ctrl.agc_attack_delay_extra_margin_us;
	reg = clamp_t(uint8_t, reg, 0U, 31U);
    2f6c:	e0bff617 	ldw	r2,-40(fp)
    2f70:	10803fcc 	andi	r2,r2,255
    2f74:	108007e8 	cmpgeui	r2,r2,31
    2f78:	1000031e 	bne	r2,zero,2f88 <ad9361_gc_update+0xd4>
    2f7c:	e0bff617 	ldw	r2,-40(fp)
    2f80:	10803fcc 	andi	r2,r2,255
    2f84:	0080070e 	bge	zero,r2,2fa4 <ad9361_gc_update+0xf0>
    2f88:	e0bff617 	ldw	r2,-40(fp)
    2f8c:	10c03fcc 	andi	r3,r2,255
    2f90:	18c00830 	cmpltui	r3,r3,32
    2f94:	1800011e 	bne	r3,zero,2f9c <ad9361_gc_update+0xe8>
    2f98:	008007c4 	movi	r2,31
    2f9c:	10803fcc 	andi	r2,r2,255
    2fa0:	00000106 	br	2fa8 <ad9361_gc_update+0xf4>
    2fa4:	0005883a 	mov	r2,zero
    2fa8:	e0bff615 	stw	r2,-40(fp)
	ret = ad9361_spi_writef(spi, REG_AGC_ATTACK_DELAY,
    2fac:	01000fc4 	movi	r4,63
    2fb0:	001c8300 	call	1c830 <find_first_bit>
    2fb4:	1007883a 	mov	r3,r2
    2fb8:	e0bff617 	ldw	r2,-40(fp)
    2fbc:	d8800015 	stw	r2,0(sp)
    2fc0:	e13ff817 	ldw	r4,-32(fp)
    2fc4:	01400884 	movi	r5,34
    2fc8:	01800fc4 	movi	r6,63
    2fcc:	180f883a 	mov	r7,r3
    2fd0:	000031c0 	call	31c <__ad9361_spi_writef>
    2fd4:	e0bffb15 	stw	r2,-20(fp)

	/*
	 * Peak Overload Wait Time (ClkRF cycles)=ceiling((0.1+Delay_LNA) *clkRF+1)
	 */

	reg = (delay_lna + 100UL) * (clkrf / 1000UL);
    2fd8:	e0bffa17 	ldw	r2,-24(fp)
    2fdc:	14001904 	addi	r16,r2,100
    2fe0:	e0bff917 	ldw	r2,-28(fp)
    2fe4:	1009883a 	mov	r4,r2
    2fe8:	0140fa04 	movi	r5,1000
    2fec:	001d7a40 	call	1d7a4 <__udivsi3>
    2ff0:	8085383a 	mul	r2,r16,r2
    2ff4:	e0bff615 	stw	r2,-40(fp)
	reg = DIV_ROUND_UP(reg, 1000000UL) + 1;
    2ff8:	e0fff617 	ldw	r3,-40(fp)
    2ffc:	008003f4 	movhi	r2,15
    3000:	10908fc4 	addi	r2,r2,16959
    3004:	1885883a 	add	r2,r3,r2
    3008:	1009883a 	mov	r4,r2
    300c:	014003f4 	movhi	r5,15
    3010:	29509004 	addi	r5,r5,16960
    3014:	001d7a40 	call	1d7a4 <__udivsi3>
    3018:	10800044 	addi	r2,r2,1
    301c:	e0bff615 	stw	r2,-40(fp)
	reg = clamp_t(uint8_t, reg, 0U, 31U);
    3020:	e0bff617 	ldw	r2,-40(fp)
    3024:	10803fcc 	andi	r2,r2,255
    3028:	108007e8 	cmpgeui	r2,r2,31
    302c:	1000031e 	bne	r2,zero,303c <ad9361_gc_update+0x188>
    3030:	e0bff617 	ldw	r2,-40(fp)
    3034:	10803fcc 	andi	r2,r2,255
    3038:	0080070e 	bge	zero,r2,3058 <ad9361_gc_update+0x1a4>
    303c:	e0bff617 	ldw	r2,-40(fp)
    3040:	10c03fcc 	andi	r3,r2,255
    3044:	18c00830 	cmpltui	r3,r3,32
    3048:	1800011e 	bne	r3,zero,3050 <ad9361_gc_update+0x19c>
    304c:	008007c4 	movi	r2,31
    3050:	10803fcc 	andi	r2,r2,255
    3054:	00000106 	br	305c <ad9361_gc_update+0x1a8>
    3058:	0005883a 	mov	r2,zero
    305c:	e0bff615 	stw	r2,-40(fp)
	ret |= ad9361_spi_writef(spi, REG_PEAK_WAIT_TIME,
    3060:	010007c4 	movi	r4,31
    3064:	001c8300 	call	1c830 <find_first_bit>
    3068:	1007883a 	mov	r3,r2
    306c:	e0bff617 	ldw	r2,-40(fp)
    3070:	d8800015 	stw	r2,0(sp)
    3074:	e13ff817 	ldw	r4,-32(fp)
    3078:	01403f84 	movi	r5,254
    307c:	018007c4 	movi	r6,31
    3080:	180f883a 	mov	r7,r3
    3084:	000031c0 	call	31c <__ad9361_spi_writef>
    3088:	1007883a 	mov	r3,r2
    308c:	e0bffb17 	ldw	r2,-20(fp)
    3090:	10c4b03a 	or	r2,r2,r3
    3094:	e0bffb15 	stw	r2,-20(fp)
	 * Settling Delay in 0x111.  Applies to all gain control modes:
	 * 0x111[D4:D0]= ceiling(((0.2+Delay_LNA)*clkRF
	dodebug = false;+14)/2)
	 */

	reg = (delay_lna + 200UL) * (clkrf / 2000UL);
    3098:	e0bffa17 	ldw	r2,-24(fp)
    309c:	14003204 	addi	r16,r2,200
    30a0:	e0bff917 	ldw	r2,-28(fp)
    30a4:	1009883a 	mov	r4,r2
    30a8:	0141f404 	movi	r5,2000
    30ac:	001d7a40 	call	1d7a4 <__udivsi3>
    30b0:	8085383a 	mul	r2,r16,r2
    30b4:	e0bff615 	stw	r2,-40(fp)
	reg = DIV_ROUND_UP(reg, 1000000UL) + 7;
    30b8:	e0fff617 	ldw	r3,-40(fp)
    30bc:	008003f4 	movhi	r2,15
    30c0:	10908fc4 	addi	r2,r2,16959
    30c4:	1885883a 	add	r2,r3,r2
    30c8:	1009883a 	mov	r4,r2
    30cc:	014003f4 	movhi	r5,15
    30d0:	29509004 	addi	r5,r5,16960
    30d4:	001d7a40 	call	1d7a4 <__udivsi3>
    30d8:	108001c4 	addi	r2,r2,7
    30dc:	e0bff615 	stw	r2,-40(fp)
	reg = settling_delay = clamp_t(uint8_t, reg, 0U, 31U);
    30e0:	e0bff617 	ldw	r2,-40(fp)
    30e4:	10803fcc 	andi	r2,r2,255
    30e8:	108007e8 	cmpgeui	r2,r2,31
    30ec:	1000031e 	bne	r2,zero,30fc <ad9361_gc_update+0x248>
    30f0:	e0bff617 	ldw	r2,-40(fp)
    30f4:	10803fcc 	andi	r2,r2,255
    30f8:	0080070e 	bge	zero,r2,3118 <ad9361_gc_update+0x264>
    30fc:	e0bff617 	ldw	r2,-40(fp)
    3100:	10c03fcc 	andi	r3,r2,255
    3104:	18c00830 	cmpltui	r3,r3,32
    3108:	1800011e 	bne	r3,zero,3110 <ad9361_gc_update+0x25c>
    310c:	008007c4 	movi	r2,31
    3110:	10803fcc 	andi	r2,r2,255
    3114:	00000106 	br	311c <ad9361_gc_update+0x268>
    3118:	0005883a 	mov	r2,zero
    311c:	e0bffc15 	stw	r2,-16(fp)
    3120:	e0bffc17 	ldw	r2,-16(fp)
    3124:	e0bff615 	stw	r2,-40(fp)
	ret |= ad9361_spi_writef(spi, REG_FAST_CONFIG_2_SETTLING_DELAY,
    3128:	010007c4 	movi	r4,31
    312c:	001c8300 	call	1c830 <find_first_bit>
    3130:	1007883a 	mov	r3,r2
    3134:	e0bff617 	ldw	r2,-40(fp)
    3138:	d8800015 	stw	r2,0(sp)
    313c:	e13ff817 	ldw	r4,-32(fp)
    3140:	01404444 	movi	r5,273
    3144:	018007c4 	movi	r6,31
    3148:	180f883a 	mov	r7,r3
    314c:	000031c0 	call	31c <__ad9361_spi_writef>
    3150:	1007883a 	mov	r3,r2
    3154:	e0bffb17 	ldw	r2,-20(fp)
    3158:	10c4b03a 	or	r2,r2,r3
    315c:	e0bffb15 	stw	r2,-20(fp)
			 SETTLING_DELAY(~0), reg);

	/*
	 * Gain Update Counter [15:0]= round((((time*ClkRF-0x111[D4:D0]*2)-2))/2)
	 */
	reg = phy->pdata->gain_ctrl.gain_update_interval_us * (clkrf / 1000UL) -
    3160:	e0bffe17 	ldw	r2,-8(fp)
    3164:	10803017 	ldw	r2,192(r2)
    3168:	14003117 	ldw	r16,196(r2)
    316c:	e0bff917 	ldw	r2,-28(fp)
    3170:	1009883a 	mov	r4,r2
    3174:	0140fa04 	movi	r5,1000
    3178:	001d7a40 	call	1d7a4 <__udivsi3>
    317c:	8087383a 	mul	r3,r16,r2
		settling_delay * 2000UL - 2000UL;
    3180:	e0bffc17 	ldw	r2,-16(fp)
    3184:	1081f424 	muli	r2,r2,2000
			 SETTLING_DELAY(~0), reg);

	/*
	 * Gain Update Counter [15:0]= round((((time*ClkRF-0x111[D4:D0]*2)-2))/2)
	 */
	reg = phy->pdata->gain_ctrl.gain_update_interval_us * (clkrf / 1000UL) -
    3188:	1885c83a 	sub	r2,r3,r2
    318c:	10be0c04 	addi	r2,r2,-2000
    3190:	e0bff615 	stw	r2,-40(fp)
		settling_delay * 2000UL - 2000UL;

	reg = DIV_ROUND_CLOSEST(reg, 2000UL);
    3194:	e0bff617 	ldw	r2,-40(fp)
    3198:	1080fa04 	addi	r2,r2,1000
    319c:	1009883a 	mov	r4,r2
    31a0:	0141f404 	movi	r5,2000
    31a4:	001d7a40 	call	1d7a4 <__udivsi3>
    31a8:	e0bff615 	stw	r2,-40(fp)
	reg = clamp_t(uint32_t, reg, 0U, 131071UL);
    31ac:	e0bff617 	ldw	r2,-40(fp)
    31b0:	10000626 	beq	r2,zero,31cc <ad9361_gc_update+0x318>
    31b4:	e0bff617 	ldw	r2,-40(fp)
    31b8:	00c000b4 	movhi	r3,2
    31bc:	10c00436 	bltu	r2,r3,31d0 <ad9361_gc_update+0x31c>
    31c0:	008000b4 	movhi	r2,2
    31c4:	10bfffc4 	addi	r2,r2,-1
    31c8:	00000106 	br	31d0 <ad9361_gc_update+0x31c>
    31cc:	0005883a 	mov	r2,zero
    31d0:	e0bff615 	stw	r2,-40(fp)

	if (phy->agc_mode[0] == RF_GAIN_FASTATTACK_AGC ||
    31d4:	e0bffe17 	ldw	r2,-8(fp)
    31d8:	10805f03 	ldbu	r2,380(r2)
    31dc:	10803fcc 	andi	r2,r2,255
    31e0:	10800060 	cmpeqi	r2,r2,1
    31e4:	1000051e 	bne	r2,zero,31fc <ad9361_gc_update+0x348>
		phy->agc_mode[1] == RF_GAIN_FASTATTACK_AGC) {
    31e8:	e0bffe17 	ldw	r2,-8(fp)
    31ec:	10805f43 	ldbu	r2,381(r2)
		settling_delay * 2000UL - 2000UL;

	reg = DIV_ROUND_CLOSEST(reg, 2000UL);
	reg = clamp_t(uint32_t, reg, 0U, 131071UL);

	if (phy->agc_mode[0] == RF_GAIN_FASTATTACK_AGC ||
    31f0:	10803fcc 	andi	r2,r2,255
    31f4:	10800058 	cmpnei	r2,r2,1
    31f8:	1000051e 	bne	r2,zero,3210 <ad9361_gc_update+0x35c>
		phy->agc_mode[1] == RF_GAIN_FASTATTACK_AGC) {
		dec_pow_meas_dur =
			phy->pdata->gain_ctrl.f_agc_dec_pow_measuremnt_duration;
    31fc:	e0bffe17 	ldw	r2,-8(fp)
    3200:	10803017 	ldw	r2,192(r2)
	reg = DIV_ROUND_CLOSEST(reg, 2000UL);
	reg = clamp_t(uint32_t, reg, 0U, 131071UL);

	if (phy->agc_mode[0] == RF_GAIN_FASTATTACK_AGC ||
		phy->agc_mode[1] == RF_GAIN_FASTATTACK_AGC) {
		dec_pow_meas_dur =
    3204:	10803317 	ldw	r2,204(r2)
    3208:	e0bff715 	stw	r2,-36(fp)
    320c:	00002406 	br	32a0 <ad9361_gc_update+0x3ec>
			phy->pdata->gain_ctrl.f_agc_dec_pow_measuremnt_duration;
	} else {
		fir_div = DIV_ROUND_CLOSEST(clkrf,
    3210:	e0bffe17 	ldw	r2,-8(fp)
    3214:	10801f17 	ldw	r2,124(r2)
    3218:	e13ffe17 	ldw	r4,-8(fp)
    321c:	100b883a 	mov	r5,r2
    3220:	001bc900 	call	1bc90 <clk_get_rate>
    3224:	1006d07a 	srli	r3,r2,1
    3228:	e0bff917 	ldw	r2,-28(fp)
    322c:	18a1883a 	add	r16,r3,r2
    3230:	e0bffe17 	ldw	r2,-8(fp)
    3234:	10801f17 	ldw	r2,124(r2)
    3238:	e13ffe17 	ldw	r4,-8(fp)
    323c:	100b883a 	mov	r5,r2
    3240:	001bc900 	call	1bc90 <clk_get_rate>
    3244:	8009883a 	mov	r4,r16
    3248:	100b883a 	mov	r5,r2
    324c:	001d7a40 	call	1d7a4 <__udivsi3>
    3250:	e0bffd15 	stw	r2,-12(fp)
				clk_get_rate(phy, phy->ref_clk_scale[RX_SAMPL_CLK]));
		dec_pow_meas_dur = phy->pdata->gain_ctrl.dec_pow_measuremnt_duration;
    3254:	e0bffe17 	ldw	r2,-8(fp)
    3258:	10803017 	ldw	r2,192(r2)
    325c:	1080290b 	ldhu	r2,164(r2)
    3260:	10bfffcc 	andi	r2,r2,65535
    3264:	e0bff715 	stw	r2,-36(fp)

		if (((reg * 2 / fir_div) / dec_pow_meas_dur) < 2) {
    3268:	e0bff617 	ldw	r2,-40(fp)
    326c:	1085883a 	add	r2,r2,r2
    3270:	1009883a 	mov	r4,r2
    3274:	e17ffd17 	ldw	r5,-12(fp)
    3278:	001d7a40 	call	1d7a4 <__udivsi3>
    327c:	1009883a 	mov	r4,r2
    3280:	e17ff717 	ldw	r5,-36(fp)
    3284:	001d7a40 	call	1d7a4 <__udivsi3>
    3288:	108000a8 	cmpgeui	r2,r2,2
    328c:	1000041e 	bne	r2,zero,32a0 <ad9361_gc_update+0x3ec>
			dec_pow_meas_dur = reg / fir_div;
    3290:	e13ff617 	ldw	r4,-40(fp)
    3294:	e17ffd17 	ldw	r5,-12(fp)
    3298:	001d7a40 	call	1d7a4 <__udivsi3>
    329c:	e0bff715 	stw	r2,-36(fp)
		}
	}

	/* Power Measurement Duration */
	ad9361_spi_writef(spi, REG_DEC_POWER_MEASURE_DURATION_0,
    32a0:	010003c4 	movi	r4,15
    32a4:	001c8300 	call	1c830 <find_first_bit>
    32a8:	1021883a 	mov	r16,r2
    32ac:	e0bff717 	ldw	r2,-36(fp)
    32b0:	1004d13a 	srli	r2,r2,4
    32b4:	1009883a 	mov	r4,r2
    32b8:	001c5b40 	call	1c5b4 <ilog2>
    32bc:	d8800015 	stw	r2,0(sp)
    32c0:	e13ff817 	ldw	r4,-32(fp)
    32c4:	01405704 	movi	r5,348
    32c8:	018003c4 	movi	r6,15
    32cc:	800f883a 	mov	r7,r16
    32d0:	000031c0 	call	31c <__ad9361_spi_writef>
			  DEC_POWER_MEASUREMENT_DURATION(~0),
			  ilog2(dec_pow_meas_dur / 16));


	ret |= ad9361_spi_writef(spi, REG_DIGITAL_SAT_COUNTER,
    32d4:	01000804 	movi	r4,32
    32d8:	001c8300 	call	1c830 <find_first_bit>
    32dc:	100f883a 	mov	r7,r2
    32e0:	e0bff617 	ldw	r2,-40(fp)
    32e4:	00ffffd4 	movui	r3,65535
    32e8:	1885803a 	cmpltu	r2,r3,r2
    32ec:	10803fcc 	andi	r2,r2,255
    32f0:	d8800015 	stw	r2,0(sp)
    32f4:	e13ff817 	ldw	r4,-32(fp)
    32f8:	01404a04 	movi	r5,296
    32fc:	01800804 	movi	r6,32
    3300:	000031c0 	call	31c <__ad9361_spi_writef>
    3304:	1007883a 	mov	r3,r2
    3308:	e0bffb17 	ldw	r2,-20(fp)
    330c:	10c4b03a 	or	r2,r2,r3
    3310:	e0bffb15 	stw	r2,-20(fp)
			  DOUBLE_GAIN_COUNTER,  reg > 65535);

	if (reg > 65535)
    3314:	e0bff617 	ldw	r2,-40(fp)
    3318:	00ffffd4 	movui	r3,65535
    331c:	1880032e 	bgeu	r3,r2,332c <ad9361_gc_update+0x478>
		reg /= 2;
    3320:	e0bff617 	ldw	r2,-40(fp)
    3324:	1004d07a 	srli	r2,r2,1
    3328:	e0bff615 	stw	r2,-40(fp)

	ret |= ad9361_spi_write(spi, REG_GAIN_UPDATE_COUNTER1, reg & 0xFF);
    332c:	e0bff617 	ldw	r2,-40(fp)
    3330:	10803fcc 	andi	r2,r2,255
    3334:	e13ff817 	ldw	r4,-32(fp)
    3338:	01404904 	movi	r5,292
    333c:	100d883a 	mov	r6,r2
    3340:	00002600 	call	260 <ad9361_spi_write>
    3344:	1007883a 	mov	r3,r2
    3348:	e0bffb17 	ldw	r2,-20(fp)
    334c:	10c4b03a 	or	r2,r2,r3
    3350:	e0bffb15 	stw	r2,-20(fp)
	ret |= ad9361_spi_write(spi, REG_GAIN_UPDATE_COUNTER2, reg >> 8);
    3354:	e0bff617 	ldw	r2,-40(fp)
    3358:	1004d23a 	srli	r2,r2,8
    335c:	e13ff817 	ldw	r4,-32(fp)
    3360:	01404944 	movi	r5,293
    3364:	100d883a 	mov	r6,r2
    3368:	00002600 	call	260 <ad9361_spi_write>
    336c:	1007883a 	mov	r3,r2
    3370:	e0bffb17 	ldw	r2,-20(fp)
    3374:	10c4b03a 	or	r2,r2,r3
    3378:	e0bffb15 	stw	r2,-20(fp)

	/*
	 * Fast AGC State Wait Time - Energy Detect Count
	 */

	reg = DIV_ROUND_CLOSEST(phy->pdata->gain_ctrl.f_agc_state_wait_time_ns *
    337c:	e0bffe17 	ldw	r2,-8(fp)
    3380:	10803017 	ldw	r2,192(r2)
    3384:	14003417 	ldw	r16,208(r2)
    3388:	e0bff917 	ldw	r2,-28(fp)
    338c:	1009883a 	mov	r4,r2
    3390:	0140fa04 	movi	r5,1000
    3394:	001d7a40 	call	1d7a4 <__udivsi3>
    3398:	8087383a 	mul	r3,r16,r2
    339c:	00800234 	movhi	r2,8
    33a0:	10a84804 	addi	r2,r2,-24288
    33a4:	1885883a 	add	r2,r3,r2
    33a8:	1009883a 	mov	r4,r2
    33ac:	014003f4 	movhi	r5,15
    33b0:	29509004 	addi	r5,r5,16960
    33b4:	001d7a40 	call	1d7a4 <__udivsi3>
    33b8:	e0bff615 	stw	r2,-40(fp)
				(clkrf / 1000UL), 1000000UL);
	reg = clamp_t(uint32_t, reg, 0U, 31U);
    33bc:	e0bff617 	ldw	r2,-40(fp)
    33c0:	10000526 	beq	r2,zero,33d8 <ad9361_gc_update+0x524>
    33c4:	e0bff617 	ldw	r2,-40(fp)
    33c8:	10c00830 	cmpltui	r3,r2,32
    33cc:	1800031e 	bne	r3,zero,33dc <ad9361_gc_update+0x528>
    33d0:	008007c4 	movi	r2,31
    33d4:	00000106 	br	33dc <ad9361_gc_update+0x528>
    33d8:	0005883a 	mov	r2,zero
    33dc:	e0bff615 	stw	r2,-40(fp)
	ret |= ad9361_spi_writef(spi, REG_FAST_ENERGY_DETECT_COUNT,
    33e0:	010007c4 	movi	r4,31
    33e4:	001c8300 	call	1c830 <find_first_bit>
    33e8:	1007883a 	mov	r3,r2
    33ec:	e0bff617 	ldw	r2,-40(fp)
    33f0:	d8800015 	stw	r2,0(sp)
    33f4:	e13ff817 	ldw	r4,-32(fp)
    33f8:	014045c4 	movi	r5,279
    33fc:	018007c4 	movi	r6,31
    3400:	180f883a 	mov	r7,r3
    3404:	000031c0 	call	31c <__ad9361_spi_writef>
    3408:	1007883a 	mov	r3,r2
    340c:	e0bffb17 	ldw	r2,-20(fp)
    3410:	10c4b03a 	or	r2,r2,r3
    3414:	e0bffb15 	stw	r2,-20(fp)
			  ENERGY_DETECT_COUNT(~0),  reg);

	return ret;
    3418:	e0bffb17 	ldw	r2,-20(fp)
}
    341c:	e6ffff04 	addi	sp,fp,-4
    3420:	dfc00217 	ldw	ra,8(sp)
    3424:	df000117 	ldw	fp,4(sp)
    3428:	dc000017 	ldw	r16,0(sp)
    342c:	dec00304 	addi	sp,sp,12
    3430:	f800283a 	ret

00003434 <ad9361_set_gain_ctrl_mode>:
 *        channel information and the gain control mode.
 * @return 0 in case of success, negative error code otherwise.
 */
int32_t ad9361_set_gain_ctrl_mode(struct ad9361_rf_phy *phy,
		struct rf_gain_ctrl *gain_ctrl)
{
    3434:	defff704 	addi	sp,sp,-36
    3438:	de00012e 	bgeu	sp,et,3440 <ad9361_set_gain_ctrl_mode+0xc>
    343c:	003b68fa 	trap	3
    3440:	dfc00815 	stw	ra,32(sp)
    3444:	df000715 	stw	fp,28(sp)
    3448:	df000704 	addi	fp,sp,28
    344c:	e13ffe15 	stw	r4,-8(fp)
    3450:	e17fff15 	stw	r5,-4(fp)
	struct spi_device *spi = phy->spi;
    3454:	e0bffe17 	ldw	r2,-8(fp)
    3458:	10800117 	ldw	r2,4(r2)
    345c:	e0bffc15 	stw	r2,-16(fp)
	int32_t rc = 0;
    3460:	e03ff915 	stw	zero,-28(fp)
	uint32_t gain_ctl_shift, mode;
	uint8_t val;

	rc = ad9361_spi_readm(spi, REG_AGC_CONFIG_1, &val, 1);
    3464:	e0bffd04 	addi	r2,fp,-12
    3468:	e13ffc17 	ldw	r4,-16(fp)
    346c:	01403e84 	movi	r5,250
    3470:	100d883a 	mov	r6,r2
    3474:	01c00044 	movi	r7,1
    3478:	00000740 	call	74 <ad9361_spi_readm>
    347c:	e0bff915 	stw	r2,-28(fp)
	if (rc) {
    3480:	e0bff917 	ldw	r2,-28(fp)
    3484:	10000826 	beq	r2,zero,34a8 <ad9361_set_gain_ctrl_mode+0x74>
		dev_err(dev, "Unable to read AGC config1 register: %x",
    3488:	010000b4 	movhi	r4,2
    348c:	211b9404 	addi	r4,r4,28240
    3490:	01403e84 	movi	r5,250
    3494:	001f8180 	call	1f818 <printf>
    3498:	010000b4 	movhi	r4,2
    349c:	211a7504 	addi	r4,r4,27092
    34a0:	001f8180 	call	1f818 <printf>
			REG_AGC_CONFIG_1);
		goto out;
    34a4:	00007c06 	br	3698 <ad9361_set_gain_ctrl_mode+0x264>
	}

	switch (gain_ctrl->mode) {
    34a8:	e0bfff17 	ldw	r2,-4(fp)
    34ac:	10800103 	ldbu	r2,4(r2)
    34b0:	10803fcc 	andi	r2,r2,255
    34b4:	10c00060 	cmpeqi	r3,r2,1
    34b8:	18000b1e 	bne	r3,zero,34e8 <ad9361_set_gain_ctrl_mode+0xb4>
    34bc:	10c00088 	cmpgei	r3,r2,2
    34c0:	1800021e 	bne	r3,zero,34cc <ad9361_set_gain_ctrl_mode+0x98>
    34c4:	10000626 	beq	r2,zero,34e0 <ad9361_set_gain_ctrl_mode+0xac>
    34c8:	00001006 	br	350c <ad9361_set_gain_ctrl_mode+0xd8>
    34cc:	10c000a0 	cmpeqi	r3,r2,2
    34d0:	1800081e 	bne	r3,zero,34f4 <ad9361_set_gain_ctrl_mode+0xc0>
    34d4:	108000e0 	cmpeqi	r2,r2,3
    34d8:	1000091e 	bne	r2,zero,3500 <ad9361_set_gain_ctrl_mode+0xcc>
    34dc:	00000b06 	br	350c <ad9361_set_gain_ctrl_mode+0xd8>
	case RF_GAIN_MGC:
		mode = RX_GAIN_CTL_MGC;
    34e0:	e03ffb15 	stw	zero,-20(fp)
		break;
    34e4:	00000c06 	br	3518 <ad9361_set_gain_ctrl_mode+0xe4>
	case RF_GAIN_FASTATTACK_AGC:
		mode = RX_GAIN_CTL_AGC_FAST_ATK;
    34e8:	00800044 	movi	r2,1
    34ec:	e0bffb15 	stw	r2,-20(fp)
		break;
    34f0:	00000906 	br	3518 <ad9361_set_gain_ctrl_mode+0xe4>
	case RF_GAIN_SLOWATTACK_AGC:
		mode = RX_GAIN_CTL_AGC_SLOW_ATK;
    34f4:	00800084 	movi	r2,2
    34f8:	e0bffb15 	stw	r2,-20(fp)
		break;
    34fc:	00000606 	br	3518 <ad9361_set_gain_ctrl_mode+0xe4>
	case RF_GAIN_HYBRID_AGC:
		mode = RX_GAIN_CTL_AGC_SLOW_ATK_HYBD;
    3500:	008000c4 	movi	r2,3
    3504:	e0bffb15 	stw	r2,-20(fp)
		break;
    3508:	00000306 	br	3518 <ad9361_set_gain_ctrl_mode+0xe4>
	default:
		rc = -EINVAL;
    350c:	00bffa84 	movi	r2,-22
    3510:	e0bff915 	stw	r2,-28(fp)
		goto out;
    3514:	00006006 	br	3698 <ad9361_set_gain_ctrl_mode+0x264>
	}

	if (gain_ctrl->ant == 1) {
    3518:	e0bfff17 	ldw	r2,-4(fp)
    351c:	10800017 	ldw	r2,0(r2)
    3520:	10800058 	cmpnei	r2,r2,1
    3524:	1000021e 	bne	r2,zero,3530 <ad9361_set_gain_ctrl_mode+0xfc>
		gain_ctl_shift = RX1_GAIN_CTRL_SHIFT;
    3528:	e03ffa15 	stw	zero,-24(fp)
    352c:	00001306 	br	357c <ad9361_set_gain_ctrl_mode+0x148>
	}
	else if (gain_ctrl->ant == 2) {
    3530:	e0bfff17 	ldw	r2,-4(fp)
    3534:	10800017 	ldw	r2,0(r2)
    3538:	10800098 	cmpnei	r2,r2,2
    353c:	1000031e 	bne	r2,zero,354c <ad9361_set_gain_ctrl_mode+0x118>
		gain_ctl_shift = RX2_GAIN_CTRL_SHIFT;
    3540:	00800084 	movi	r2,2
    3544:	e0bffa15 	stw	r2,-24(fp)
    3548:	00000c06 	br	357c <ad9361_set_gain_ctrl_mode+0x148>
	}
	else {
		dev_err(dev, "Unknown Rx path %"PRIu32, gain_ctrl->ant);
    354c:	e0bfff17 	ldw	r2,-4(fp)
    3550:	10800017 	ldw	r2,0(r2)
    3554:	010000b4 	movhi	r4,2
    3558:	211acb04 	addi	r4,r4,27436
    355c:	100b883a 	mov	r5,r2
    3560:	001f8180 	call	1f818 <printf>
    3564:	010000b4 	movhi	r4,2
    3568:	211a7504 	addi	r4,r4,27092
    356c:	001f8180 	call	1f818 <printf>
		rc = -EINVAL;
    3570:	00bffa84 	movi	r2,-22
    3574:	e0bff915 	stw	r2,-28(fp)
		goto out;
    3578:	00004706 	br	3698 <ad9361_set_gain_ctrl_mode+0x264>
	}

	rc = ad9361_en_dis_rx(phy, gain_ctrl->ant, RX_DISABLE);
    357c:	e0bfff17 	ldw	r2,-4(fp)
    3580:	10800017 	ldw	r2,0(r2)
    3584:	e13ffe17 	ldw	r4,-8(fp)
    3588:	100b883a 	mov	r5,r2
    358c:	000d883a 	mov	r6,zero
    3590:	00008300 	call	830 <ad9361_en_dis_rx>
    3594:	e0bff915 	stw	r2,-28(fp)
	if (rc) {
    3598:	e0bff917 	ldw	r2,-28(fp)
    359c:	10000a26 	beq	r2,zero,35c8 <ad9361_set_gain_ctrl_mode+0x194>
		dev_err(dev, "Unable to disable rx%"PRIu32, gain_ctrl->ant);
    35a0:	e0bfff17 	ldw	r2,-4(fp)
    35a4:	10800017 	ldw	r2,0(r2)
    35a8:	010000b4 	movhi	r4,2
    35ac:	211b9e04 	addi	r4,r4,28280
    35b0:	100b883a 	mov	r5,r2
    35b4:	001f8180 	call	1f818 <printf>
    35b8:	010000b4 	movhi	r4,2
    35bc:	211a7504 	addi	r4,r4,27092
    35c0:	001f8180 	call	1f818 <printf>
		goto out;
    35c4:	00003406 	br	3698 <ad9361_set_gain_ctrl_mode+0x264>
	}

	val &= ~(RX_GAIN_CTL_MASK << gain_ctl_shift);
    35c8:	e0bffa17 	ldw	r2,-24(fp)
    35cc:	00c000c4 	movi	r3,3
    35d0:	1884983a 	sll	r2,r3,r2
    35d4:	0084303a 	nor	r2,zero,r2
    35d8:	1007883a 	mov	r3,r2
    35dc:	e0bffd03 	ldbu	r2,-12(fp)
    35e0:	1884703a 	and	r2,r3,r2
    35e4:	e0bffd05 	stb	r2,-12(fp)
	val |= mode << gain_ctl_shift;
    35e8:	e0bffa17 	ldw	r2,-24(fp)
    35ec:	e0fffb17 	ldw	r3,-20(fp)
    35f0:	1884983a 	sll	r2,r3,r2
    35f4:	1007883a 	mov	r3,r2
    35f8:	e0bffd03 	ldbu	r2,-12(fp)
    35fc:	1884b03a 	or	r2,r3,r2
    3600:	e0bffd05 	stb	r2,-12(fp)
	if (mode == RX_GAIN_CTL_AGC_SLOW_ATK_HYBD)
    3604:	e0bffb17 	ldw	r2,-20(fp)
    3608:	108000d8 	cmpnei	r2,r2,3
    360c:	1000041e 	bne	r2,zero,3620 <ad9361_set_gain_ctrl_mode+0x1ec>
		val |= SLOW_ATTACK_HYBRID_MODE;
    3610:	e0bffd03 	ldbu	r2,-12(fp)
    3614:	10800414 	ori	r2,r2,16
    3618:	e0bffd05 	stb	r2,-12(fp)
    361c:	00000406 	br	3630 <ad9361_set_gain_ctrl_mode+0x1fc>
	else
		val &= ~SLOW_ATTACK_HYBRID_MODE;
    3620:	e0fffd03 	ldbu	r3,-12(fp)
    3624:	00bffbc4 	movi	r2,-17
    3628:	1884703a 	and	r2,r3,r2
    362c:	e0bffd05 	stb	r2,-12(fp)

	rc = ad9361_spi_write(spi, REG_AGC_CONFIG_1, val);
    3630:	e0bffd03 	ldbu	r2,-12(fp)
    3634:	10803fcc 	andi	r2,r2,255
    3638:	e13ffc17 	ldw	r4,-16(fp)
    363c:	01403e84 	movi	r5,250
    3640:	100d883a 	mov	r6,r2
    3644:	00002600 	call	260 <ad9361_spi_write>
    3648:	e0bff915 	stw	r2,-28(fp)
	if (rc) {
    364c:	e0bff917 	ldw	r2,-28(fp)
    3650:	10000826 	beq	r2,zero,3674 <ad9361_set_gain_ctrl_mode+0x240>
		dev_err(dev, "Unable to write AGC config1 register: %x",
    3654:	010000b4 	movhi	r4,2
    3658:	211ba404 	addi	r4,r4,28304
    365c:	01403e84 	movi	r5,250
    3660:	001f8180 	call	1f818 <printf>
    3664:	010000b4 	movhi	r4,2
    3668:	211a7504 	addi	r4,r4,27092
    366c:	001f8180 	call	1f818 <printf>
			REG_AGC_CONFIG_1);
		goto out;
    3670:	00000906 	br	3698 <ad9361_set_gain_ctrl_mode+0x264>
	}

	ad9361_en_dis_rx(phy, gain_ctrl->ant, RX_ENABLE);
    3674:	e0bfff17 	ldw	r2,-4(fp)
    3678:	10800017 	ldw	r2,0(r2)
    367c:	e13ffe17 	ldw	r4,-8(fp)
    3680:	100b883a 	mov	r5,r2
    3684:	01800044 	movi	r6,1
    3688:	00008300 	call	830 <ad9361_en_dis_rx>
	rc = ad9361_gc_update(phy);
    368c:	e13ffe17 	ldw	r4,-8(fp)
    3690:	0002eb40 	call	2eb4 <ad9361_gc_update>
    3694:	e0bff915 	stw	r2,-28(fp)
out:
	return rc;
    3698:	e0bff917 	ldw	r2,-28(fp)
}
    369c:	e037883a 	mov	sp,fp
    36a0:	dfc00117 	ldw	ra,4(sp)
    36a4:	df000017 	ldw	fp,0(sp)
    36a8:	dec00204 	addi	sp,sp,8
    36ac:	f800283a 	ret

000036b0 <ad9361_read_rssi>:
 * @param phy The AD9361 state structure.
 * @param rssi A rf_rssi struct to store the RSSI.
 * @return 0 in case of success, negative error code otherwise.
 */
int32_t ad9361_read_rssi(struct ad9361_rf_phy *phy, struct rf_rssi *rssi)
{
    36b0:	defff804 	addi	sp,sp,-32
    36b4:	de00012e 	bgeu	sp,et,36bc <ad9361_read_rssi+0xc>
    36b8:	003b68fa 	trap	3
    36bc:	dfc00715 	stw	ra,28(sp)
    36c0:	df000615 	stw	fp,24(sp)
    36c4:	df000604 	addi	fp,sp,24
    36c8:	e13ffe15 	stw	r4,-8(fp)
    36cc:	e17fff15 	stw	r5,-4(fp)
	struct spi_device *spi = phy->spi;
    36d0:	e0bffe17 	ldw	r2,-8(fp)
    36d4:	10800117 	ldw	r2,4(r2)
    36d8:	e0bffb15 	stw	r2,-20(fp)
	uint8_t reg_val_buf[6];
	int32_t rc;

	rc = ad9361_spi_readm(spi, REG_PREAMBLE_LSB,
    36dc:	e0bffc04 	addi	r2,fp,-16
    36e0:	e13ffb17 	ldw	r4,-20(fp)
    36e4:	01406b04 	movi	r5,428
    36e8:	100d883a 	mov	r6,r2
    36ec:	01c00184 	movi	r7,6
    36f0:	00000740 	call	74 <ad9361_spi_readm>
    36f4:	e0bffa15 	stw	r2,-24(fp)
		reg_val_buf, ARRAY_SIZE(reg_val_buf));
	if (rssi->ant == 1) {
    36f8:	e0bfff17 	ldw	r2,-4(fp)
    36fc:	10800017 	ldw	r2,0(r2)
    3700:	10800058 	cmpnei	r2,r2,1
    3704:	1000191e 	bne	r2,zero,376c <ad9361_read_rssi+0xbc>
		rssi->symbol = RSSI_RESOLUTION *
			((reg_val_buf[5] << RSSI_LSB_SHIFT) +
    3708:	e0bffd43 	ldbu	r2,-11(fp)
    370c:	10803fcc 	andi	r2,r2,255
    3710:	1085883a 	add	r2,r2,r2
    3714:	1007883a 	mov	r3,r2
			(reg_val_buf[1] & RSSI_LSB_MASK1));
    3718:	e0bffc43 	ldbu	r2,-15(fp)
    371c:	10803fcc 	andi	r2,r2,255
    3720:	1080004c 	andi	r2,r2,1

	rc = ad9361_spi_readm(spi, REG_PREAMBLE_LSB,
		reg_val_buf, ARRAY_SIZE(reg_val_buf));
	if (rssi->ant == 1) {
		rssi->symbol = RSSI_RESOLUTION *
			((reg_val_buf[5] << RSSI_LSB_SHIFT) +
    3724:	1885883a 	add	r2,r3,r2
	int32_t rc;

	rc = ad9361_spi_readm(spi, REG_PREAMBLE_LSB,
		reg_val_buf, ARRAY_SIZE(reg_val_buf));
	if (rssi->ant == 1) {
		rssi->symbol = RSSI_RESOLUTION *
    3728:	10800664 	muli	r2,r2,25
    372c:	1007883a 	mov	r3,r2
    3730:	e0bfff17 	ldw	r2,-4(fp)
    3734:	10c00115 	stw	r3,4(r2)
			((reg_val_buf[5] << RSSI_LSB_SHIFT) +
			(reg_val_buf[1] & RSSI_LSB_MASK1));
		rssi->preamble = RSSI_RESOLUTION *
			((reg_val_buf[4] << RSSI_LSB_SHIFT) +
    3738:	e0bffd03 	ldbu	r2,-12(fp)
    373c:	10803fcc 	andi	r2,r2,255
    3740:	1085883a 	add	r2,r2,r2
    3744:	1007883a 	mov	r3,r2
			(reg_val_buf[0] & RSSI_LSB_MASK1));
    3748:	e0bffc03 	ldbu	r2,-16(fp)
    374c:	10803fcc 	andi	r2,r2,255
    3750:	1080004c 	andi	r2,r2,1
	if (rssi->ant == 1) {
		rssi->symbol = RSSI_RESOLUTION *
			((reg_val_buf[5] << RSSI_LSB_SHIFT) +
			(reg_val_buf[1] & RSSI_LSB_MASK1));
		rssi->preamble = RSSI_RESOLUTION *
			((reg_val_buf[4] << RSSI_LSB_SHIFT) +
    3754:	1885883a 	add	r2,r3,r2
		reg_val_buf, ARRAY_SIZE(reg_val_buf));
	if (rssi->ant == 1) {
		rssi->symbol = RSSI_RESOLUTION *
			((reg_val_buf[5] << RSSI_LSB_SHIFT) +
			(reg_val_buf[1] & RSSI_LSB_MASK1));
		rssi->preamble = RSSI_RESOLUTION *
    3758:	10800664 	muli	r2,r2,25
    375c:	1007883a 	mov	r3,r2
    3760:	e0bfff17 	ldw	r2,-4(fp)
    3764:	10c00215 	stw	r3,8(r2)
    3768:	00002106 	br	37f0 <ad9361_read_rssi+0x140>
			((reg_val_buf[4] << RSSI_LSB_SHIFT) +
			(reg_val_buf[0] & RSSI_LSB_MASK1));
	}
	else if (rssi->ant == 2) {
    376c:	e0bfff17 	ldw	r2,-4(fp)
    3770:	10800017 	ldw	r2,0(r2)
    3774:	10800098 	cmpnei	r2,r2,2
    3778:	10001b1e 	bne	r2,zero,37e8 <ad9361_read_rssi+0x138>
		rssi->symbol = RSSI_RESOLUTION *
			((reg_val_buf[3] << RSSI_LSB_SHIFT) +
    377c:	e0bffcc3 	ldbu	r2,-13(fp)
    3780:	10803fcc 	andi	r2,r2,255
    3784:	1085883a 	add	r2,r2,r2
    3788:	1007883a 	mov	r3,r2
			((reg_val_buf[1] & RSSI_LSB_MASK2) >> 1));
    378c:	e0bffc43 	ldbu	r2,-15(fp)
    3790:	10803fcc 	andi	r2,r2,255
    3794:	1080008c 	andi	r2,r2,2
    3798:	1005d07a 	srai	r2,r2,1
			((reg_val_buf[4] << RSSI_LSB_SHIFT) +
			(reg_val_buf[0] & RSSI_LSB_MASK1));
	}
	else if (rssi->ant == 2) {
		rssi->symbol = RSSI_RESOLUTION *
			((reg_val_buf[3] << RSSI_LSB_SHIFT) +
    379c:	1885883a 	add	r2,r3,r2
		rssi->preamble = RSSI_RESOLUTION *
			((reg_val_buf[4] << RSSI_LSB_SHIFT) +
			(reg_val_buf[0] & RSSI_LSB_MASK1));
	}
	else if (rssi->ant == 2) {
		rssi->symbol = RSSI_RESOLUTION *
    37a0:	10800664 	muli	r2,r2,25
    37a4:	1007883a 	mov	r3,r2
    37a8:	e0bfff17 	ldw	r2,-4(fp)
    37ac:	10c00115 	stw	r3,4(r2)
			((reg_val_buf[3] << RSSI_LSB_SHIFT) +
			((reg_val_buf[1] & RSSI_LSB_MASK2) >> 1));
		rssi->preamble = RSSI_RESOLUTION *
			((reg_val_buf[2] << RSSI_LSB_SHIFT) +
    37b0:	e0bffc83 	ldbu	r2,-14(fp)
    37b4:	10803fcc 	andi	r2,r2,255
    37b8:	1085883a 	add	r2,r2,r2
    37bc:	1007883a 	mov	r3,r2
			((reg_val_buf[0] & RSSI_LSB_MASK2) >> 1));
    37c0:	e0bffc03 	ldbu	r2,-16(fp)
    37c4:	10803fcc 	andi	r2,r2,255
    37c8:	1080008c 	andi	r2,r2,2
    37cc:	1005d07a 	srai	r2,r2,1
	else if (rssi->ant == 2) {
		rssi->symbol = RSSI_RESOLUTION *
			((reg_val_buf[3] << RSSI_LSB_SHIFT) +
			((reg_val_buf[1] & RSSI_LSB_MASK2) >> 1));
		rssi->preamble = RSSI_RESOLUTION *
			((reg_val_buf[2] << RSSI_LSB_SHIFT) +
    37d0:	1885883a 	add	r2,r3,r2
	}
	else if (rssi->ant == 2) {
		rssi->symbol = RSSI_RESOLUTION *
			((reg_val_buf[3] << RSSI_LSB_SHIFT) +
			((reg_val_buf[1] & RSSI_LSB_MASK2) >> 1));
		rssi->preamble = RSSI_RESOLUTION *
    37d4:	10800664 	muli	r2,r2,25
    37d8:	1007883a 	mov	r3,r2
    37dc:	e0bfff17 	ldw	r2,-4(fp)
    37e0:	10c00215 	stw	r3,8(r2)
    37e4:	00000206 	br	37f0 <ad9361_read_rssi+0x140>
			((reg_val_buf[2] << RSSI_LSB_SHIFT) +
			((reg_val_buf[0] & RSSI_LSB_MASK2) >> 1));
	}
	else
		rc = -EFAULT;
    37e8:	00bffc84 	movi	r2,-14
    37ec:	e0bffa15 	stw	r2,-24(fp)

	rssi->multiplier = RSSI_MULTIPLIER;
    37f0:	e0bfff17 	ldw	r2,-4(fp)
    37f4:	00c01904 	movi	r3,100
    37f8:	10c00315 	stw	r3,12(r2)

	return rc;
    37fc:	e0bffa17 	ldw	r2,-24(fp)
}
    3800:	e037883a 	mov	sp,fp
    3804:	dfc00117 	ldw	ra,4(sp)
    3808:	df000017 	ldw	fp,0(sp)
    380c:	dec00204 	addi	sp,sp,8
    3810:	f800283a 	ret

00003814 <ad9361_rx_adc_setup>:
 * @param adc_sampl_freq_Hz The ADC sampling frequency [Hz].
 * @return 0 in case of success, negative error code otherwise.
 */
static int32_t ad9361_rx_adc_setup(struct ad9361_rf_phy *phy, uint32_t bbpll_freq,
	uint32_t adc_sampl_freq_Hz)
{
    3814:	deffb504 	addi	sp,sp,-300
    3818:	de00012e 	bgeu	sp,et,3820 <ad9361_rx_adc_setup+0xc>
    381c:	003b68fa 	trap	3
    3820:	dfc04a15 	stw	ra,296(sp)
    3824:	df004915 	stw	fp,292(sp)
    3828:	ddc04815 	stw	r23,288(sp)
    382c:	dd804715 	stw	r22,284(sp)
    3830:	dd404615 	stw	r21,280(sp)
    3834:	dd004515 	stw	r20,276(sp)
    3838:	dcc04415 	stw	r19,272(sp)
    383c:	dc804315 	stw	r18,268(sp)
    3840:	dc404215 	stw	r17,264(sp)
    3844:	dc004115 	stw	r16,260(sp)
    3848:	df004904 	addi	fp,sp,292
    384c:	e13fd115 	stw	r4,-188(fp)
    3850:	e17fd215 	stw	r5,-184(fp)
    3854:	e1bfd315 	stw	r6,-180(fp)
	uint64_t tmp, invrc_tconst_1e6;
	uint8_t data[40];
	uint32_t i;
	int32_t ret;

	uint8_t c3_msb = ad9361_spi_read(phy->spi, REG_RX_BBF_C3_MSB);
    3858:	e0bfd117 	ldw	r2,-188(fp)
    385c:	10800117 	ldw	r2,4(r2)
    3860:	1009883a 	mov	r4,r2
    3864:	01407ac4 	movi	r5,491
    3868:	00001500 	call	150 <ad9361_spi_read>
    386c:	e0bfb905 	stb	r2,-284(fp)
	uint8_t c3_lsb = ad9361_spi_read(phy->spi, REG_RX_BBF_C3_LSB);
    3870:	e0bfd117 	ldw	r2,-188(fp)
    3874:	10800117 	ldw	r2,4(r2)
    3878:	1009883a 	mov	r4,r2
    387c:	01407b04 	movi	r5,492
    3880:	00001500 	call	150 <ad9361_spi_read>
    3884:	e0bfb945 	stb	r2,-283(fp)
	uint8_t r2346 = ad9361_spi_read(phy->spi, REG_RX_BBF_R2346);
    3888:	e0bfd117 	ldw	r2,-188(fp)
    388c:	10800117 	ldw	r2,4(r2)
    3890:	1009883a 	mov	r4,r2
    3894:	01407984 	movi	r5,486
    3898:	00001500 	call	150 <ad9361_spi_read>
    389c:	e0bfb985 	stb	r2,-282(fp)
	/*
	* BBBW = (BBPLL / RxTuneDiv) * ln(2) / (1.4 * 2PI )
	* We assume ad9361_rx_bb_analog_filter_calib() is always run prior
	*/

	tmp = bbpll_freq * 10000ULL;
    38a0:	e0bfd217 	ldw	r2,-184(fp)
    38a4:	1021883a 	mov	r16,r2
    38a8:	0023883a 	mov	r17,zero
    38ac:	0089c404 	movi	r2,10000
    38b0:	0007883a 	mov	r3,zero
    38b4:	8009883a 	mov	r4,r16
    38b8:	880b883a 	mov	r5,r17
    38bc:	100d883a 	mov	r6,r2
    38c0:	180f883a 	mov	r7,r3
    38c4:	001c9940 	call	1c994 <__muldi3>
    38c8:	1009883a 	mov	r4,r2
    38cc:	180b883a 	mov	r5,r3
    38d0:	2005883a 	mov	r2,r4
    38d4:	2807883a 	mov	r3,r5
    38d8:	e0bfc315 	stw	r2,-244(fp)
    38dc:	e0ffc415 	stw	r3,-240(fp)
	do_div(&tmp, 126906UL * phy->rxbbf_div);
    38e0:	e0bfd117 	ldw	r2,-188(fp)
    38e4:	10c04d17 	ldw	r3,308(r2)
    38e8:	008000b4 	movhi	r2,2
    38ec:	10bbee84 	addi	r2,r2,-4166
    38f0:	1885383a 	mul	r2,r3,r2
    38f4:	1025883a 	mov	r18,r2
    38f8:	0027883a 	mov	r19,zero
    38fc:	e0bfc304 	addi	r2,fp,-244
    3900:	1009883a 	mov	r4,r2
    3904:	900b883a 	mov	r5,r18
    3908:	980d883a 	mov	r6,r19
    390c:	001c76c0 	call	1c76c <do_div>
	bb_bw_Hz = tmp;
    3910:	e0bfc317 	ldw	r2,-244(fp)
    3914:	e0ffc417 	ldw	r3,-240(fp)
    3918:	e0bfba15 	stw	r2,-280(fp)

	dev_dbg(&phy->spi->dev, "%s : BBBW %"PRIu32" : ADCfreq %"PRIu32,
    391c:	010000b4 	movhi	r4,2
    3920:	211baf04 	addi	r4,r4,28348
    3924:	014000b4 	movhi	r5,2
    3928:	295ea004 	addi	r5,r5,31360
    392c:	e1bfba17 	ldw	r6,-280(fp)
    3930:	e1ffd317 	ldw	r7,-180(fp)
    3934:	001f8180 	call	1f818 <printf>
    3938:	010000b4 	movhi	r4,2
    393c:	211a7504 	addi	r4,r4,27092
    3940:	001f8180 	call	1f818 <printf>
		__func__, bb_bw_Hz, adc_sampl_freq_Hz);

	dev_dbg(&phy->spi->dev, "c3_msb 0x%X : c3_lsb 0x%X : r2346 0x%X : ",
    3944:	e17fb903 	ldbu	r5,-284(fp)
    3948:	e0ffb943 	ldbu	r3,-283(fp)
    394c:	e0bfb983 	ldbu	r2,-282(fp)
    3950:	010000b4 	movhi	r4,2
    3954:	211bb604 	addi	r4,r4,28376
    3958:	180d883a 	mov	r6,r3
    395c:	100f883a 	mov	r7,r2
    3960:	001f8180 	call	1f818 <printf>
    3964:	010000b4 	movhi	r4,2
    3968:	211a7504 	addi	r4,r4,27092
    396c:	001f8180 	call	1f818 <printf>
		c3_msb, c3_lsb, r2346);

	bb_bw_Hz = clamp(bb_bw_Hz, 200000UL, 28000000UL);
    3970:	e0ffba17 	ldw	r3,-280(fp)
    3974:	008000f4 	movhi	r2,3
    3978:	10835004 	addi	r2,r2,3392
    397c:	10c0072e 	bgeu	r2,r3,399c <ad9361_rx_adc_setup+0x188>
    3980:	e0ffba17 	ldw	r3,-280(fp)
    3984:	00806af4 	movhi	r2,427
    3988:	108fc004 	addi	r2,r2,16128
    398c:	10c0052e 	bgeu	r2,r3,39a4 <ad9361_rx_adc_setup+0x190>
    3990:	00c06af4 	movhi	r3,427
    3994:	18cfc004 	addi	r3,r3,16128
    3998:	00000206 	br	39a4 <ad9361_rx_adc_setup+0x190>
    399c:	00c000f4 	movhi	r3,3
    39a0:	18c35004 	addi	r3,r3,3392
    39a4:	e0ffba15 	stw	r3,-280(fp)

	if (adc_sampl_freq_Hz < 80000000)
    39a8:	e0ffd317 	ldw	r3,-180(fp)
    39ac:	00813174 	movhi	r2,1221
    39b0:	10acffc4 	addi	r2,r2,-19457
    39b4:	10c00336 	bltu	r2,r3,39c4 <ad9361_rx_adc_setup+0x1b0>
		scale_snr_1e3 = 1000;
    39b8:	0080fa04 	movi	r2,1000
    39bc:	e0bfb715 	stw	r2,-292(fp)
    39c0:	00000206 	br	39cc <ad9361_rx_adc_setup+0x1b8>
	else
		scale_snr_1e3 = 1585; /* pow(10, scale_snr_dB/10); */
    39c4:	00818c44 	movi	r2,1585
    39c8:	e0bfb715 	stw	r2,-292(fp)

	if (bb_bw_Hz >= 18000000) {
    39cc:	e0ffba17 	ldw	r3,-280(fp)
    39d0:	008044f4 	movhi	r2,275
    39d4:	10aa1fc4 	addi	r2,r2,-22401
    39d8:	10c04b2e 	bgeu	r2,r3,3b08 <ad9361_rx_adc_setup+0x2f4>
		invrc_tconst_1e6 = (160975ULL * r2346 *
    39dc:	e0bfb983 	ldbu	r2,-282(fp)
    39e0:	10803fcc 	andi	r2,r2,255
    39e4:	e0bfd415 	stw	r2,-176(fp)
    39e8:	e03fd515 	stw	zero,-172(fp)
			(160 * c3_msb + 10 * c3_lsb + 140) *
    39ec:	e0bfb903 	ldbu	r2,-284(fp)
    39f0:	10c02824 	muli	r3,r2,160
    39f4:	e0bfb943 	ldbu	r2,-283(fp)
    39f8:	108002a4 	muli	r2,r2,10
    39fc:	1885883a 	add	r2,r3,r2
    3a00:	10802304 	addi	r2,r2,140
		scale_snr_1e3 = 1000;
	else
		scale_snr_1e3 = 1585; /* pow(10, scale_snr_dB/10); */

	if (bb_bw_Hz >= 18000000) {
		invrc_tconst_1e6 = (160975ULL * r2346 *
    3a04:	e0bfd615 	stw	r2,-168(fp)
    3a08:	1005d7fa 	srai	r2,r2,31
    3a0c:	e0bfd715 	stw	r2,-164(fp)
    3a10:	e13fd417 	ldw	r4,-176(fp)
    3a14:	e17fd517 	ldw	r5,-172(fp)
    3a18:	e1bfd617 	ldw	r6,-168(fp)
    3a1c:	e1ffd717 	ldw	r7,-164(fp)
    3a20:	001c9940 	call	1c994 <__muldi3>
    3a24:	1009883a 	mov	r4,r2
    3a28:	180b883a 	mov	r5,r3
    3a2c:	200d883a 	mov	r6,r4
    3a30:	280f883a 	mov	r7,r5
			(160 * c3_msb + 10 * c3_lsb + 140) *
    3a34:	e0bfba17 	ldw	r2,-280(fp)
    3a38:	e0bfd815 	stw	r2,-160(fp)
    3a3c:	e03fd915 	stw	zero,-156(fp)
    3a40:	3009883a 	mov	r4,r6
    3a44:	380b883a 	mov	r5,r7
    3a48:	e1bfd817 	ldw	r6,-160(fp)
    3a4c:	e1ffd917 	ldw	r7,-156(fp)
    3a50:	001c9940 	call	1c994 <__muldi3>
    3a54:	1009883a 	mov	r4,r2
    3a58:	180b883a 	mov	r5,r3
    3a5c:	2021883a 	mov	r16,r4
    3a60:	2823883a 	mov	r17,r5
			(bb_bw_Hz)* (1000 + (10 * (bb_bw_Hz - 18000000) / 1000000)));
    3a64:	e0bfba17 	ldw	r2,-280(fp)
    3a68:	10c002a4 	muli	r3,r2,10
    3a6c:	00bd5174 	movhi	r2,62789
    3a70:	109ac004 	addi	r2,r2,27392
    3a74:	1885883a 	add	r2,r3,r2
    3a78:	1009883a 	mov	r4,r2
    3a7c:	014003f4 	movhi	r5,15
    3a80:	29509004 	addi	r5,r5,16960
    3a84:	001d7a40 	call	1d7a4 <__udivsi3>
    3a88:	1080fa04 	addi	r2,r2,1000
    3a8c:	e0bfda15 	stw	r2,-152(fp)
    3a90:	e03fdb15 	stw	zero,-148(fp)
    3a94:	8009883a 	mov	r4,r16
    3a98:	880b883a 	mov	r5,r17
    3a9c:	e1bfda17 	ldw	r6,-152(fp)
    3aa0:	e1ffdb17 	ldw	r7,-148(fp)
    3aa4:	001c9940 	call	1c994 <__muldi3>
    3aa8:	1009883a 	mov	r4,r2
    3aac:	180b883a 	mov	r5,r3
    3ab0:	200d883a 	mov	r6,r4
    3ab4:	280f883a 	mov	r7,r5
    3ab8:	008000b4 	movhi	r2,2
    3abc:	109d33c4 	addi	r2,r2,29903
    3ac0:	0007883a 	mov	r3,zero
    3ac4:	3009883a 	mov	r4,r6
    3ac8:	380b883a 	mov	r5,r7
    3acc:	100d883a 	mov	r6,r2
    3ad0:	180f883a 	mov	r7,r3
    3ad4:	001c9940 	call	1c994 <__muldi3>
    3ad8:	1009883a 	mov	r4,r2
    3adc:	180b883a 	mov	r5,r3
    3ae0:	2005883a 	mov	r2,r4
    3ae4:	2807883a 	mov	r3,r5
		scale_snr_1e3 = 1000;
	else
		scale_snr_1e3 = 1585; /* pow(10, scale_snr_dB/10); */

	if (bb_bw_Hz >= 18000000) {
		invrc_tconst_1e6 = (160975ULL * r2346 *
    3ae8:	e0bfc515 	stw	r2,-236(fp)
    3aec:	e0ffc615 	stw	r3,-232(fp)
			(160 * c3_msb + 10 * c3_lsb + 140) *
			(bb_bw_Hz)* (1000 + (10 * (bb_bw_Hz - 18000000) / 1000000)));

		do_div(&invrc_tconst_1e6, 1000UL);
    3af0:	e0bfc504 	addi	r2,fp,-236
    3af4:	1009883a 	mov	r4,r2
    3af8:	0140fa04 	movi	r5,1000
    3afc:	000d883a 	mov	r6,zero
    3b00:	001c76c0 	call	1c76c <do_div>
    3b04:	00003006 	br	3bc8 <ad9361_rx_adc_setup+0x3b4>

	}
	else {
		invrc_tconst_1e6 = (160975ULL * r2346 *
    3b08:	e0bfb983 	ldbu	r2,-282(fp)
    3b0c:	10803fcc 	andi	r2,r2,255
    3b10:	e0bfdc15 	stw	r2,-144(fp)
    3b14:	e03fdd15 	stw	zero,-140(fp)
			(160 * c3_msb + 10 * c3_lsb + 140) *
    3b18:	e0bfb903 	ldbu	r2,-284(fp)
    3b1c:	10c02824 	muli	r3,r2,160
    3b20:	e0bfb943 	ldbu	r2,-283(fp)
    3b24:	108002a4 	muli	r2,r2,10
    3b28:	1885883a 	add	r2,r3,r2
    3b2c:	10802304 	addi	r2,r2,140

		do_div(&invrc_tconst_1e6, 1000UL);

	}
	else {
		invrc_tconst_1e6 = (160975ULL * r2346 *
    3b30:	e0bfde15 	stw	r2,-136(fp)
    3b34:	1005d7fa 	srai	r2,r2,31
    3b38:	e0bfdf15 	stw	r2,-132(fp)
    3b3c:	e13fdc17 	ldw	r4,-144(fp)
    3b40:	e17fdd17 	ldw	r5,-140(fp)
    3b44:	e1bfde17 	ldw	r6,-136(fp)
    3b48:	e1ffdf17 	ldw	r7,-132(fp)
    3b4c:	001c9940 	call	1c994 <__muldi3>
    3b50:	1009883a 	mov	r4,r2
    3b54:	180b883a 	mov	r5,r3
    3b58:	200d883a 	mov	r6,r4
    3b5c:	280f883a 	mov	r7,r5
			(160 * c3_msb + 10 * c3_lsb + 140) *
    3b60:	e0bfba17 	ldw	r2,-280(fp)
    3b64:	e0bfe015 	stw	r2,-128(fp)
    3b68:	e03fe115 	stw	zero,-124(fp)
    3b6c:	3009883a 	mov	r4,r6
    3b70:	380b883a 	mov	r5,r7
    3b74:	e1bfe017 	ldw	r6,-128(fp)
    3b78:	e1ffe117 	ldw	r7,-124(fp)
    3b7c:	001c9940 	call	1c994 <__muldi3>
    3b80:	1009883a 	mov	r4,r2
    3b84:	180b883a 	mov	r5,r3
    3b88:	200d883a 	mov	r6,r4
    3b8c:	280f883a 	mov	r7,r5
    3b90:	008000b4 	movhi	r2,2
    3b94:	109d33c4 	addi	r2,r2,29903
    3b98:	0007883a 	mov	r3,zero
    3b9c:	3009883a 	mov	r4,r6
    3ba0:	380b883a 	mov	r5,r7
    3ba4:	100d883a 	mov	r6,r2
    3ba8:	180f883a 	mov	r7,r3
    3bac:	001c9940 	call	1c994 <__muldi3>
    3bb0:	1009883a 	mov	r4,r2
    3bb4:	180b883a 	mov	r5,r3
    3bb8:	2005883a 	mov	r2,r4
    3bbc:	2807883a 	mov	r3,r5

		do_div(&invrc_tconst_1e6, 1000UL);

	}
	else {
		invrc_tconst_1e6 = (160975ULL * r2346 *
    3bc0:	e0bfc515 	stw	r2,-236(fp)
    3bc4:	e0ffc615 	stw	r3,-232(fp)
			(160 * c3_msb + 10 * c3_lsb + 140) *
			(bb_bw_Hz));
	}

	do_div(&invrc_tconst_1e6, 1000000000UL);
    3bc8:	e0bfc504 	addi	r2,fp,-236
    3bcc:	1009883a 	mov	r4,r2
    3bd0:	014ee6f4 	movhi	r5,15259
    3bd4:	29728004 	addi	r5,r5,-13824
    3bd8:	000d883a 	mov	r6,zero
    3bdc:	001c76c0 	call	1c76c <do_div>

	if (invrc_tconst_1e6 > ULONG_MAX)
    3be0:	e0bfc517 	ldw	r2,-236(fp)
    3be4:	e0ffc617 	ldw	r3,-232(fp)
    3be8:	18000626 	beq	r3,zero,3c04 <ad9361_rx_adc_setup+0x3f0>
		dev_err(&phy->spi->dev, "invrc_tconst_1e6 > ULONG_MAX");
    3bec:	010000b4 	movhi	r4,2
    3bf0:	211bc104 	addi	r4,r4,28420
    3bf4:	001f8180 	call	1f818 <printf>
    3bf8:	010000b4 	movhi	r4,2
    3bfc:	211a7504 	addi	r4,r4,27092
    3c00:	001f8180 	call	1f818 <printf>

	sqrt_inv_rc_tconst_1e3 = int_sqrt((uint32_t)invrc_tconst_1e6);
    3c04:	e0bfc517 	ldw	r2,-236(fp)
    3c08:	e0ffc617 	ldw	r3,-232(fp)
    3c0c:	1009883a 	mov	r4,r2
    3c10:	001c5080 	call	1c508 <int_sqrt>
    3c14:	e0bfbb15 	stw	r2,-276(fp)
	maxsnr = 640 / 160;
    3c18:	00800104 	movi	r2,4
    3c1c:	e0bfbc15 	stw	r2,-272(fp)
	scaled_adc_clk_1e6 = DIV_ROUND_CLOSEST(adc_sampl_freq_Hz, 640);
    3c20:	e0bfd317 	ldw	r2,-180(fp)
    3c24:	10805004 	addi	r2,r2,320
    3c28:	1009883a 	mov	r4,r2
    3c2c:	0140a004 	movi	r5,640
    3c30:	001d7a40 	call	1d7a4 <__udivsi3>
    3c34:	e0bfbd15 	stw	r2,-268(fp)
	inv_scaled_adc_clk_1e3 = DIV_ROUND_CLOSEST(640000000,
    3c38:	e0bfd317 	ldw	r2,-180(fp)
    3c3c:	10807d04 	addi	r2,r2,500
    3c40:	1009883a 	mov	r4,r2
    3c44:	0141f404 	movi	r5,2000
    3c48:	001d7a40 	call	1d7a4 <__udivsi3>
    3c4c:	1007883a 	mov	r3,r2
    3c50:	008989b4 	movhi	r2,9766
    3c54:	10a80004 	addi	r2,r2,-24576
    3c58:	18a1883a 	add	r16,r3,r2
    3c5c:	e0bfd317 	ldw	r2,-180(fp)
    3c60:	10807d04 	addi	r2,r2,500
    3c64:	1009883a 	mov	r4,r2
    3c68:	0140fa04 	movi	r5,1000
    3c6c:	001d7a40 	call	1d7a4 <__udivsi3>
    3c70:	8009883a 	mov	r4,r16
    3c74:	100b883a 	mov	r5,r2
    3c78:	001d7a40 	call	1d7a4 <__udivsi3>
    3c7c:	e0bfbe15 	stw	r2,-264(fp)
		DIV_ROUND_CLOSEST(adc_sampl_freq_Hz, 1000));
	tmp_1e3 = DIV_ROUND_CLOSEST(980000 + 20 * max_t(uint32_t, 1000U,
    3c80:	e0bfbc17 	ldw	r2,-272(fp)
    3c84:	1006d07a 	srli	r3,r2,1
    3c88:	e0bfbe17 	ldw	r2,-264(fp)
    3c8c:	1885883a 	add	r2,r3,r2
    3c90:	1009883a 	mov	r4,r2
    3c94:	e17fbc17 	ldw	r5,-272(fp)
    3c98:	001d7a40 	call	1d7a4 <__udivsi3>
    3c9c:	1007883a 	mov	r3,r2
    3ca0:	1880fa28 	cmpgeui	r2,r3,1000
    3ca4:	1000011e 	bne	r2,zero,3cac <ad9361_rx_adc_setup+0x498>
    3ca8:	00c0fa04 	movi	r3,1000
    3cac:	18c00524 	muli	r3,r3,20
    3cb0:	008003f4 	movhi	r2,15
    3cb4:	10bd8504 	addi	r2,r2,-2540
    3cb8:	1885883a 	add	r2,r3,r2
    3cbc:	1009883a 	mov	r4,r2
    3cc0:	0140fa04 	movi	r5,1000
    3cc4:	001d7a40 	call	1d7a4 <__udivsi3>
    3cc8:	e0bfbf15 	stw	r2,-260(fp)
		DIV_ROUND_CLOSEST(inv_scaled_adc_clk_1e3, maxsnr)), 1000);
	sqrt_term_1e3 = int_sqrt(scaled_adc_clk_1e6);
    3ccc:	e13fbd17 	ldw	r4,-268(fp)
    3cd0:	001c5080 	call	1c508 <int_sqrt>
    3cd4:	e0bfc015 	stw	r2,-256(fp)
	min_sqrt_term_1e3 = min_t(uint32_t, 1000U,
    3cd8:	e0ffbc17 	ldw	r3,-272(fp)
    3cdc:	e0bfbd17 	ldw	r2,-268(fp)
    3ce0:	1885383a 	mul	r2,r3,r2
    3ce4:	1009883a 	mov	r4,r2
    3ce8:	001c5080 	call	1c508 <int_sqrt>
    3cec:	1080fa68 	cmpgeui	r2,r2,1001
    3cf0:	1000061e 	bne	r2,zero,3d0c <ad9361_rx_adc_setup+0x4f8>
    3cf4:	e0ffbc17 	ldw	r3,-272(fp)
    3cf8:	e0bfbd17 	ldw	r2,-268(fp)
    3cfc:	1885383a 	mul	r2,r3,r2
    3d00:	1009883a 	mov	r4,r2
    3d04:	001c5080 	call	1c508 <int_sqrt>
    3d08:	00000106 	br	3d10 <ad9361_rx_adc_setup+0x4fc>
    3d0c:	0080fa04 	movi	r2,1000
    3d10:	e0bfc115 	stw	r2,-252(fp)
		int_sqrt(maxsnr * scaled_adc_clk_1e6));

	dev_dbg(&phy->spi->dev, "invrc_tconst_1e6 %"PRIu64", sqrt_inv_rc_tconst_1e3 %"PRIu32,
    3d14:	e0bfc517 	ldw	r2,-236(fp)
    3d18:	e0ffc617 	ldw	r3,-232(fp)
    3d1c:	010000b4 	movhi	r4,2
    3d20:	211bc904 	addi	r4,r4,28452
    3d24:	100b883a 	mov	r5,r2
    3d28:	180d883a 	mov	r6,r3
    3d2c:	e1ffbb17 	ldw	r7,-276(fp)
    3d30:	001f8180 	call	1f818 <printf>
    3d34:	010000b4 	movhi	r4,2
    3d38:	211a7504 	addi	r4,r4,27092
    3d3c:	001f8180 	call	1f818 <printf>
		invrc_tconst_1e6, sqrt_inv_rc_tconst_1e3);
	dev_dbg(&phy->spi->dev, "scaled_adc_clk_1e6 %"PRIu32", inv_scaled_adc_clk_1e3 %"PRIu32,
    3d40:	010000b4 	movhi	r4,2
    3d44:	211bd604 	addi	r4,r4,28504
    3d48:	e17fbd17 	ldw	r5,-268(fp)
    3d4c:	e1bfbe17 	ldw	r6,-264(fp)
    3d50:	001f8180 	call	1f818 <printf>
    3d54:	010000b4 	movhi	r4,2
    3d58:	211a7504 	addi	r4,r4,27092
    3d5c:	001f8180 	call	1f818 <printf>
		scaled_adc_clk_1e6, inv_scaled_adc_clk_1e3);
	dev_dbg(&phy->spi->dev, "tmp_1e3 %"PRIu32", sqrt_term_1e3 %"PRIu32", min_sqrt_term_1e3 %"PRIu32,
    3d60:	010000b4 	movhi	r4,2
    3d64:	211be304 	addi	r4,r4,28556
    3d68:	e17fbf17 	ldw	r5,-260(fp)
    3d6c:	e1bfc017 	ldw	r6,-256(fp)
    3d70:	e1ffc117 	ldw	r7,-252(fp)
    3d74:	001f8180 	call	1f818 <printf>
    3d78:	010000b4 	movhi	r4,2
    3d7c:	211a7504 	addi	r4,r4,27092
    3d80:	001f8180 	call	1f818 <printf>
		tmp_1e3, sqrt_term_1e3, min_sqrt_term_1e3);

	data[0] = 0;
    3d84:	e03fc705 	stb	zero,-228(fp)
	data[1] = 0;
    3d88:	e03fc745 	stb	zero,-227(fp)
	data[2] = 0;
    3d8c:	e03fc785 	stb	zero,-226(fp)
	data[3] = 0x24;
    3d90:	00800904 	movi	r2,36
    3d94:	e0bfc7c5 	stb	r2,-225(fp)
	data[4] = 0x24;
    3d98:	00800904 	movi	r2,36
    3d9c:	e0bfc805 	stb	r2,-224(fp)
	data[5] = 0;
    3da0:	e03fc845 	stb	zero,-223(fp)
	data[6] = 0;
    3da4:	e03fc885 	stb	zero,-222(fp)

	tmp = -50000000 + 8ULL * scale_snr_1e3 * sqrt_inv_rc_tconst_1e3 *
    3da8:	e0bfb717 	ldw	r2,-292(fp)
    3dac:	e0bfe215 	stw	r2,-120(fp)
    3db0:	e03fe315 	stw	zero,-116(fp)
    3db4:	e0bfbb17 	ldw	r2,-276(fp)
    3db8:	e0bfe415 	stw	r2,-112(fp)
    3dbc:	e03fe515 	stw	zero,-108(fp)
    3dc0:	e13fe217 	ldw	r4,-120(fp)
    3dc4:	e17fe317 	ldw	r5,-116(fp)
    3dc8:	e1bfe417 	ldw	r6,-112(fp)
    3dcc:	e1ffe517 	ldw	r7,-108(fp)
    3dd0:	001c9940 	call	1c994 <__muldi3>
    3dd4:	1009883a 	mov	r4,r2
    3dd8:	180b883a 	mov	r5,r3
    3ddc:	200d883a 	mov	r6,r4
    3de0:	280f883a 	mov	r7,r5
    3de4:	e0bfc117 	ldw	r2,-252(fp)
    3de8:	e0bfe615 	stw	r2,-104(fp)
    3dec:	e03fe715 	stw	zero,-100(fp)
    3df0:	3009883a 	mov	r4,r6
    3df4:	380b883a 	mov	r5,r7
    3df8:	e1bfe617 	ldw	r6,-104(fp)
    3dfc:	e1ffe717 	ldw	r7,-100(fp)
    3e00:	001c9940 	call	1c994 <__muldi3>
    3e04:	1009883a 	mov	r4,r2
    3e08:	180b883a 	mov	r5,r3
    3e0c:	200f883a 	mov	r7,r4
    3e10:	2811883a 	mov	r8,r5
    3e14:	00bfe874 	movhi	r2,65441
    3e18:	10a87c04 	addi	r2,r2,-24080
    3e1c:	00ffffc4 	movi	r3,-1
    3e20:	3889883a 	add	r4,r7,r2
    3e24:	21cd803a 	cmpltu	r6,r4,r7
    3e28:	40cb883a 	add	r5,r8,r3
    3e2c:	3145883a 	add	r2,r6,r5
    3e30:	100b883a 	mov	r5,r2
    3e34:	2005883a 	mov	r2,r4
    3e38:	2807883a 	mov	r3,r5
    3e3c:	1008d77a 	srli	r4,r2,29
    3e40:	180a90fa 	slli	r5,r3,3
    3e44:	e17fe915 	stw	r5,-92(fp)
    3e48:	e1bfe917 	ldw	r6,-92(fp)
    3e4c:	2188b03a 	or	r4,r4,r6
    3e50:	e13fe915 	stw	r4,-92(fp)
    3e54:	100e90fa 	slli	r7,r2,3
    3e58:	e1ffe815 	stw	r7,-96(fp)
    3e5c:	e0bfe817 	ldw	r2,-96(fp)
    3e60:	e0bfc315 	stw	r2,-244(fp)
    3e64:	e13fe917 	ldw	r4,-92(fp)
    3e68:	e13fc415 	stw	r4,-240(fp)
		min_sqrt_term_1e3;
	do_div(&tmp, 100000000UL);
    3e6c:	e0bfc304 	addi	r2,fp,-244
    3e70:	1009883a 	mov	r4,r2
    3e74:	01417db4 	movhi	r5,1526
    3e78:	29784004 	addi	r5,r5,-7936
    3e7c:	000d883a 	mov	r6,zero
    3e80:	001c76c0 	call	1c76c <do_div>
	data[7] = min_t(uint64_t, 124U, tmp);
    3e84:	e13fc317 	ldw	r4,-244(fp)
    3e88:	e17fc417 	ldw	r5,-240(fp)
    3e8c:	2005883a 	mov	r2,r4
    3e90:	2807883a 	mov	r3,r5
    3e94:	1800031e 	bne	r3,zero,3ea4 <ad9361_rx_adc_setup+0x690>
    3e98:	1800041e 	bne	r3,zero,3eac <ad9361_rx_adc_setup+0x698>
    3e9c:	11001f68 	cmpgeui	r4,r2,125
    3ea0:	20000226 	beq	r4,zero,3eac <ad9361_rx_adc_setup+0x698>
    3ea4:	00801f04 	movi	r2,124
    3ea8:	0007883a 	mov	r3,zero
    3eac:	e0bfc8c5 	stb	r2,-221(fp)

	tmp = (invrc_tconst_1e6 >> 1) + 20 * inv_scaled_adc_clk_1e3 *
    3eb0:	e0bfc517 	ldw	r2,-236(fp)
    3eb4:	e0ffc617 	ldw	r3,-232(fp)
    3eb8:	180897fa 	slli	r4,r3,31
    3ebc:	102cd07a 	srli	r22,r2,1
    3ec0:	25acb03a 	or	r22,r4,r22
    3ec4:	182ed07a 	srli	r23,r3,1
		data[7] / 80 * 1000ULL;
    3ec8:	e0bfc8c3 	ldbu	r2,-221(fp)
	tmp = -50000000 + 8ULL * scale_snr_1e3 * sqrt_inv_rc_tconst_1e3 *
		min_sqrt_term_1e3;
	do_div(&tmp, 100000000UL);
	data[7] = min_t(uint64_t, 124U, tmp);

	tmp = (invrc_tconst_1e6 >> 1) + 20 * inv_scaled_adc_clk_1e3 *
    3ecc:	10c03fcc 	andi	r3,r2,255
    3ed0:	e0bfbe17 	ldw	r2,-264(fp)
    3ed4:	1885383a 	mul	r2,r3,r2
    3ed8:	10800524 	muli	r2,r2,20
		data[7] / 80 * 1000ULL;
    3edc:	1009883a 	mov	r4,r2
    3ee0:	01401404 	movi	r5,80
    3ee4:	001d7a40 	call	1d7a4 <__udivsi3>
    3ee8:	e0bfea15 	stw	r2,-88(fp)
    3eec:	e03feb15 	stw	zero,-84(fp)
    3ef0:	0080fa04 	movi	r2,1000
    3ef4:	0007883a 	mov	r3,zero
    3ef8:	e13fea17 	ldw	r4,-88(fp)
    3efc:	e17feb17 	ldw	r5,-84(fp)
    3f00:	100d883a 	mov	r6,r2
    3f04:	180f883a 	mov	r7,r3
    3f08:	001c9940 	call	1c994 <__muldi3>
    3f0c:	100d883a 	mov	r6,r2
    3f10:	180f883a 	mov	r7,r3
    3f14:	3009883a 	mov	r4,r6
    3f18:	380b883a 	mov	r5,r7
	tmp = -50000000 + 8ULL * scale_snr_1e3 * sqrt_inv_rc_tconst_1e3 *
		min_sqrt_term_1e3;
	do_div(&tmp, 100000000UL);
	data[7] = min_t(uint64_t, 124U, tmp);

	tmp = (invrc_tconst_1e6 >> 1) + 20 * inv_scaled_adc_clk_1e3 *
    3f1c:	b105883a 	add	r2,r22,r4
    3f20:	158d803a 	cmpltu	r6,r2,r22
    3f24:	b947883a 	add	r3,r23,r5
    3f28:	30c9883a 	add	r4,r6,r3
    3f2c:	2007883a 	mov	r3,r4
    3f30:	1009883a 	mov	r4,r2
    3f34:	180b883a 	mov	r5,r3
    3f38:	e13fc315 	stw	r4,-244(fp)
    3f3c:	e17fc415 	stw	r5,-240(fp)
		data[7] / 80 * 1000ULL;
	do_div(&tmp, invrc_tconst_1e6);
    3f40:	e0bfc517 	ldw	r2,-236(fp)
    3f44:	e0ffc617 	ldw	r3,-232(fp)
    3f48:	e13fc304 	addi	r4,fp,-244
    3f4c:	100b883a 	mov	r5,r2
    3f50:	180d883a 	mov	r6,r3
    3f54:	001c76c0 	call	1c76c <do_div>
	data[8] = min_t(uint64_t, 255U, tmp);
    3f58:	e13fc317 	ldw	r4,-244(fp)
    3f5c:	e17fc417 	ldw	r5,-240(fp)
    3f60:	2005883a 	mov	r2,r4
    3f64:	2807883a 	mov	r3,r5
    3f68:	1800031e 	bne	r3,zero,3f78 <ad9361_rx_adc_setup+0x764>
    3f6c:	1800041e 	bne	r3,zero,3f80 <ad9361_rx_adc_setup+0x76c>
    3f70:	11004028 	cmpgeui	r4,r2,256
    3f74:	20000226 	beq	r4,zero,3f80 <ad9361_rx_adc_setup+0x76c>
    3f78:	00803fc4 	movi	r2,255
    3f7c:	0007883a 	mov	r3,zero
    3f80:	e0bfc905 	stb	r2,-220(fp)

	tmp = (-500000 + 77ULL * sqrt_inv_rc_tconst_1e3 * min_sqrt_term_1e3);
    3f84:	e0bfbb17 	ldw	r2,-276(fp)
    3f88:	e0bfec15 	stw	r2,-80(fp)
    3f8c:	e03fed15 	stw	zero,-76(fp)
    3f90:	e0bfc117 	ldw	r2,-252(fp)
    3f94:	e0bfee15 	stw	r2,-72(fp)
    3f98:	e03fef15 	stw	zero,-68(fp)
    3f9c:	e13fec17 	ldw	r4,-80(fp)
    3fa0:	e17fed17 	ldw	r5,-76(fp)
    3fa4:	e1bfee17 	ldw	r6,-72(fp)
    3fa8:	e1ffef17 	ldw	r7,-68(fp)
    3fac:	001c9940 	call	1c994 <__muldi3>
    3fb0:	100f883a 	mov	r7,r2
    3fb4:	1811883a 	mov	r8,r3
    3fb8:	380b883a 	mov	r5,r7
    3fbc:	400d883a 	mov	r6,r8
    3fc0:	00801344 	movi	r2,77
    3fc4:	0007883a 	mov	r3,zero
    3fc8:	2809883a 	mov	r4,r5
    3fcc:	300b883a 	mov	r5,r6
    3fd0:	100d883a 	mov	r6,r2
    3fd4:	180f883a 	mov	r7,r3
    3fd8:	001c9940 	call	1c994 <__muldi3>
    3fdc:	1009883a 	mov	r4,r2
    3fe0:	180b883a 	mov	r5,r3
    3fe4:	200d883a 	mov	r6,r4
    3fe8:	280f883a 	mov	r7,r5
    3fec:	013ffe34 	movhi	r4,65528
    3ff0:	2117b804 	addi	r4,r4,24288
    3ff4:	017fffc4 	movi	r5,-1
    3ff8:	3105883a 	add	r2,r6,r4
    3ffc:	1191803a 	cmpltu	r8,r2,r6
    4000:	3947883a 	add	r3,r7,r5
    4004:	40c9883a 	add	r4,r8,r3
    4008:	2007883a 	mov	r3,r4
    400c:	1009883a 	mov	r4,r2
    4010:	180b883a 	mov	r5,r3
    4014:	e13fc315 	stw	r4,-244(fp)
    4018:	e17fc415 	stw	r5,-240(fp)
	do_div(&tmp, 1000000UL);
    401c:	e0bfc304 	addi	r2,fp,-244
    4020:	1009883a 	mov	r4,r2
    4024:	014003f4 	movhi	r5,15
    4028:	29509004 	addi	r5,r5,16960
    402c:	000d883a 	mov	r6,zero
    4030:	001c76c0 	call	1c76c <do_div>
	data[10] = min_t(uint64_t, 127U, tmp);
    4034:	e13fc317 	ldw	r4,-244(fp)
    4038:	e17fc417 	ldw	r5,-240(fp)
    403c:	2005883a 	mov	r2,r4
    4040:	2807883a 	mov	r3,r5
    4044:	1800031e 	bne	r3,zero,4054 <ad9361_rx_adc_setup+0x840>
    4048:	1800041e 	bne	r3,zero,405c <ad9361_rx_adc_setup+0x848>
    404c:	11002028 	cmpgeui	r4,r2,128
    4050:	20000226 	beq	r4,zero,405c <ad9361_rx_adc_setup+0x848>
    4054:	00801fc4 	movi	r2,127
    4058:	0007883a 	mov	r3,zero
    405c:	e0bfc985 	stb	r2,-218(fp)

	data[9] = min_t(uint32_t, 127U, ((800 * data[10]) / 1000));
    4060:	e0bfc983 	ldbu	r2,-218(fp)
    4064:	10803fcc 	andi	r2,r2,255
    4068:	1080c824 	muli	r2,r2,800
    406c:	1009883a 	mov	r4,r2
    4070:	0140fa04 	movi	r5,1000
    4074:	001d6e40 	call	1d6e4 <__divsi3>
    4078:	10c02030 	cmpltui	r3,r2,128
    407c:	1800011e 	bne	r3,zero,4084 <ad9361_rx_adc_setup+0x870>
    4080:	00801fc4 	movi	r2,127
    4084:	e0bfc945 	stb	r2,-219(fp)
	tmp = ((invrc_tconst_1e6 >> 1) + (20 * inv_scaled_adc_clk_1e3 *
    4088:	e0bfc517 	ldw	r2,-236(fp)
    408c:	e0ffc617 	ldw	r3,-232(fp)
    4090:	180897fa 	slli	r4,r3,31
    4094:	1028d07a 	srli	r20,r2,1
    4098:	2528b03a 	or	r20,r4,r20
    409c:	182ad07a 	srli	r21,r3,1
		data[10] * 1000ULL));
    40a0:	e0bfc983 	ldbu	r2,-218(fp)
	tmp = (-500000 + 77ULL * sqrt_inv_rc_tconst_1e3 * min_sqrt_term_1e3);
	do_div(&tmp, 1000000UL);
	data[10] = min_t(uint64_t, 127U, tmp);

	data[9] = min_t(uint32_t, 127U, ((800 * data[10]) / 1000));
	tmp = ((invrc_tconst_1e6 >> 1) + (20 * inv_scaled_adc_clk_1e3 *
    40a4:	10c03fcc 	andi	r3,r2,255
    40a8:	e0bfbe17 	ldw	r2,-264(fp)
    40ac:	1885383a 	mul	r2,r3,r2
    40b0:	10800524 	muli	r2,r2,20
		data[10] * 1000ULL));
    40b4:	e0bff015 	stw	r2,-64(fp)
    40b8:	e03ff115 	stw	zero,-60(fp)
    40bc:	0080fa04 	movi	r2,1000
    40c0:	0007883a 	mov	r3,zero
    40c4:	e13ff017 	ldw	r4,-64(fp)
    40c8:	e17ff117 	ldw	r5,-60(fp)
    40cc:	100d883a 	mov	r6,r2
    40d0:	180f883a 	mov	r7,r3
    40d4:	001c9940 	call	1c994 <__muldi3>
    40d8:	100d883a 	mov	r6,r2
    40dc:	180f883a 	mov	r7,r3
    40e0:	3009883a 	mov	r4,r6
    40e4:	380b883a 	mov	r5,r7
	tmp = (-500000 + 77ULL * sqrt_inv_rc_tconst_1e3 * min_sqrt_term_1e3);
	do_div(&tmp, 1000000UL);
	data[10] = min_t(uint64_t, 127U, tmp);

	data[9] = min_t(uint32_t, 127U, ((800 * data[10]) / 1000));
	tmp = ((invrc_tconst_1e6 >> 1) + (20 * inv_scaled_adc_clk_1e3 *
    40e8:	a105883a 	add	r2,r20,r4
    40ec:	150d803a 	cmpltu	r6,r2,r20
    40f0:	a947883a 	add	r3,r21,r5
    40f4:	30c9883a 	add	r4,r6,r3
    40f8:	2007883a 	mov	r3,r4
    40fc:	1009883a 	mov	r4,r2
    4100:	180b883a 	mov	r5,r3
    4104:	e13fc315 	stw	r4,-244(fp)
    4108:	e17fc415 	stw	r5,-240(fp)
		data[10] * 1000ULL));
	do_div(&tmp, invrc_tconst_1e6 * 77);
    410c:	e0bfc517 	ldw	r2,-236(fp)
    4110:	e0ffc617 	ldw	r3,-232(fp)
    4114:	01c01344 	movi	r7,77
    4118:	0011883a 	mov	r8,zero
    411c:	1009883a 	mov	r4,r2
    4120:	180b883a 	mov	r5,r3
    4124:	380d883a 	mov	r6,r7
    4128:	400f883a 	mov	r7,r8
    412c:	001c9940 	call	1c994 <__muldi3>
    4130:	1009883a 	mov	r4,r2
    4134:	180b883a 	mov	r5,r3
    4138:	2005883a 	mov	r2,r4
    413c:	2807883a 	mov	r3,r5
    4140:	e13fc304 	addi	r4,fp,-244
    4144:	100b883a 	mov	r5,r2
    4148:	180d883a 	mov	r6,r3
    414c:	001c76c0 	call	1c76c <do_div>
	data[11] = min_t(uint64_t, 255U, tmp);
    4150:	e13fc317 	ldw	r4,-244(fp)
    4154:	e17fc417 	ldw	r5,-240(fp)
    4158:	2005883a 	mov	r2,r4
    415c:	2807883a 	mov	r3,r5
    4160:	1800031e 	bne	r3,zero,4170 <ad9361_rx_adc_setup+0x95c>
